Archive member included because of file (symbol)

../SDK/lib/libseos.a(dll.o)   ../obj/Src/main.o (sysCheckFirstRun)
../SDK/lib/libemv.a(emv_core_func.o)
                              ../obj/Src/main.o (emv_init_callback_func)
../SDK/lib/libemv.a(emvaidlist.o)
                              ../obj/Src/tranprint.o (emv_get_one_aid_info)
../SDK/lib/libemv.a(emvappselect.o)
                              ../obj/Src/Menu.o (emv_get_log_item)
../SDK/lib/libemv.a(emvcandapp.o)
                              ../SDK/lib/libemv.a(emvappselect.o) (emv_get_one_candapp)
../SDK/lib/libemv.a(emvcapk.o)
                              ../obj/Src/tranproc.o (emv_get_one_ca_public_key)
../SDK/lib/libemv.a(emvcomplete.o)
                              ../obj/Src/emvtranproc.o (emv_terminal_action_analysis)
../SDK/lib/libemv.a(emvconfigure.o)
                              ../obj/Src/main.o (emv_set_kernel_type)
../SDK/lib/libemv.a(emvcvm.o)
                              ../obj/Src/emvtranproc.o (emv_cardholder_verify)
../SDK/lib/libemv.a(emvddflist.o)
                              ../SDK/lib/libemv.a(emvappselect.o) (emv_delete_last_ddf_list)
../SDK/lib/libemv.a(emvdol.o)
                              ../SDK/lib/libemv.a(emvappselect.o) (emv_check_tag_in_dol)
../SDK/lib/libemv.a(emvdte.o)
                              ../SDK/lib/libemv.a(emvappselect.o) (emv_check_data_element_in_template)
../SDK/lib/libemv.a(emvicc.o)
                              ../obj/Src/emvtranproc.o (emv_get_last_iccard_sw)
../SDK/lib/libemv.a(emvoda.o)
                              ../obj/Src/otherfunc.o (emv_offline_data_authentication)
../SDK/lib/libemv.a(emvodalist.o)
                              ../SDK/lib/libemv.a(emvoda.o) (emv_get_odalist_num)
../SDK/lib/libemv.a(emvpinverify.o)
                              ../SDK/lib/libemv.a(emvcomplete.o) (emv_check_online_encrypted_pin)
../SDK/lib/libemv.a(emvprocrest.o)
                              ../obj/Src/emvtranproc.o (emv_process_restriction)
../SDK/lib/libemv.a(emvpubfunc.o)
                              ../SDK/lib/libemv.a(emvcandapp.o) (emv_one_to_two)
../SDK/lib/libemv.a(emvreadappdata.o)
                              ../obj/Src/otherfunc.o (emv_read_app_data)
../SDK/lib/libemv.a(emvtac.o)
                              ../SDK/lib/libemv.a(emvoda.o) (emv_extract_sdad)
../SDK/lib/libemv.a(emvtermrisk.o)
                              ../obj/Src/emvtranproc.o (emv_terminal_risk_manage)
../SDK/lib/libemv.a(emvtlv.o)
                              ../SDK/lib/libemv.a(emvappselect.o) (emv_get_len)
../SDK/lib/libemv.a(qpbocapi.o)
                              ../obj/Src/otherfunc.o (emv_qpboc_get_app_type)
../SDK/lib/libemv.a(EmvRsa.o)
                              ../SDK/lib/libemv.a(emvicc.o) (RSA_CalculateEx)
../SDK/lib/libemv.a(EmvSHA1.o)
                              ../SDK/lib/libemv.a(emvcapk.o) (EMV_SHA1_Calc)
../SDK/lib/libemv.a(qpboc_funcs.o)
                              ../SDK/lib/libemv.a(qpbocapi.o) (emv_qpboc_check_failed_log_save_flag)
../SDK/lib/libcrypto.a(perror.o)
                              ../obj/Src/Commlib.o (__errno_location)
../SDK/lib/libcrypto.a(sha1_one.o)
                              ../obj/Src/main.o (SHA1)
../SDK/lib/libcrypto.a(sha1dgst.o)
                              ../SDK/lib/libcrypto.a(sha1_one.o) (SHA1_Init)
../SDK/lib/libcrypto.a(fprintf.o)
                              ../SDK/lib/libcrypto.a(perror.o) (SYS_FPRINTF)
../SDK/lib/libcrypto.a(write.o)
                              ../SDK/lib/libcrypto.a(fprintf.o) (SYS_WRITE)
../SDK/lib/libcrypto.a(console.o)
                              ../SDK/lib/libcrypto.a(write.o) (WriteConsole)
../SDK/lib/libcrypto.a(mem_clr.o)
                              ../SDK/lib/libcrypto.a(sha1_one.o) (OPENSSL_cleanse)
../SDK/lib/libcrypto.a(fopen.o)
                              ../SDK/lib/libcrypto.a(console.o) (LocateConsole)
../SDK/lib/libcrypto.a(open.o)
                              ../SDK/lib/libcrypto.a(fopen.o) (SYS_OPEN)
../SDK/lib/liballoc.a(memmgr.o)
                              ../obj/Src/main.o (_HeapInit)
../SDK/lib/libftp.a(ftp.o)    ../obj/Src/LocalFtp.o (ftp_logout)
../SDK/lib/libftp.a(net.o)    ../SDK/lib/libftp.a(ftp.o) (Shutdown)
/cygdrive/c/ArmToolchain/bin/../lib/gcc/arm-linux-uclibc/4.1.2/libgcc.a(_udivsi3.o)
                              ../obj/Src/PosLib.o (__udivsi3)
/cygdrive/c/ArmToolchain/bin/../lib/gcc/arm-linux-uclibc/4.1.2/libgcc.a(_divsi3.o)
                              ../obj/Src/otherfunc.o (__divsi3)
/cygdrive/c/ArmToolchain/bin/../lib/gcc/arm-linux-uclibc/4.1.2/libgcc.a(_umodsi3.o)
                              ../obj/Src/PosLib.o (__umodsi3)
/cygdrive/c/ArmToolchain/bin/../lib/gcc/arm-linux-uclibc/4.1.2/libgcc.a(_modsi3.o)
                              ../obj/Src/pack8583.o (__modsi3)
/cygdrive/c/ArmToolchain/bin/../lib/gcc/arm-linux-uclibc/4.1.2/libgcc.a(_dvmd_lnx.o)
                              /cygdrive/c/ArmToolchain/bin/../lib/gcc/arm-linux-uclibc/4.1.2/libgcc.a(_udivsi3.o) (__div0)
/cygdrive/c/ArmToolchain/bin/../lib/gcc/arm-linux-uclibc/4.1.2/libgcc.a(_divdi3.o)
                              ../obj/Src/tranproc.o (__divdi3)
/cygdrive/c/ArmToolchain/bin/../lib/gcc/arm-linux-uclibc/4.1.2/libgcc.a(_clz.o)
                              /cygdrive/c/ArmToolchain/bin/../lib/gcc/arm-linux-uclibc/4.1.2/libgcc.a(_divdi3.o) (__clz_tab)
/cygdrive/c/ArmToolchain/arm-linux-uclibc/bin/../../lib/libc.a(tolower.os)
                              ../obj/Src/MathLib.o (tolower)
/cygdrive/c/ArmToolchain/arm-linux-uclibc/bin/../../lib/libc.a(toupper.os)
                              ../obj/Src/MathLib.o (toupper)
/cygdrive/c/ArmToolchain/arm-linux-uclibc/bin/../../lib/libc.a(__C_ctype_b.os)
                              ../obj/Src/NewPosApi.o (__ctype_b)
/cygdrive/c/ArmToolchain/arm-linux-uclibc/bin/../../lib/libc.a(__C_ctype_tolower.os)
                              /cygdrive/c/ArmToolchain/arm-linux-uclibc/bin/../../lib/libc.a(tolower.os) (__GI___ctype_tolower)
/cygdrive/c/ArmToolchain/arm-linux-uclibc/bin/../../lib/libc.a(__C_ctype_toupper.os)
                              /cygdrive/c/ArmToolchain/arm-linux-uclibc/bin/../../lib/libc.a(toupper.os) (__GI___ctype_toupper)
/cygdrive/c/ArmToolchain/arm-linux-uclibc/bin/../../lib/libc.a(printf.os)
                              ../obj/Src/tranproc.o (printf)
/cygdrive/c/ArmToolchain/arm-linux-uclibc/bin/../../lib/libc.a(vsprintf.os)
                              ../obj/Src/showDebug/showDebug.o (vsprintf)
/cygdrive/c/ArmToolchain/arm-linux-uclibc/bin/../../lib/libc.a(snprintf.os)
                              ../obj/Src/tranprint.o (snprintf)
/cygdrive/c/ArmToolchain/arm-linux-uclibc/bin/../../lib/libc.a(sprintf.os)
                              ../obj/Src/wireless.o (sprintf)
/cygdrive/c/ArmToolchain/arm-linux-uclibc/bin/../../lib/libc.a(vsnprintf.os)
                              /cygdrive/c/ArmToolchain/arm-linux-uclibc/bin/../../lib/libc.a(vsprintf.os) (__GI_vsnprintf)
/cygdrive/c/ArmToolchain/arm-linux-uclibc/bin/../../lib/libc.a(_stdio.os)
                              /cygdrive/c/ArmToolchain/arm-linux-uclibc/bin/../../lib/libc.a(vsnprintf.os) (__stdio_init_mutex)
/cygdrive/c/ArmToolchain/arm-linux-uclibc/bin/../../lib/libc.a(_wcommit.os)
                              /cygdrive/c/ArmToolchain/arm-linux-uclibc/bin/../../lib/libc.a(_stdio.os) (__stdio_wcommit)
/cygdrive/c/ArmToolchain/arm-linux-uclibc/bin/../../lib/libc.a(_cs_funcs.os)
                              /cygdrive/c/ArmToolchain/arm-linux-uclibc/bin/../../lib/libc.a(_stdio.os) (_cs_close)
/cygdrive/c/ArmToolchain/arm-linux-uclibc/bin/../../lib/libc.a(vfprintf.os)
                              /cygdrive/c/ArmToolchain/arm-linux-uclibc/bin/../../lib/libc.a(printf.os) (__GI_vfprintf)
/cygdrive/c/ArmToolchain/arm-linux-uclibc/bin/../../lib/libc.a(_ppfs_init.os)
                              /cygdrive/c/ArmToolchain/arm-linux-uclibc/bin/../../lib/libc.a(vfprintf.os) (_ppfs_init)
/cygdrive/c/ArmToolchain/arm-linux-uclibc/bin/../../lib/libc.a(_ppfs_prepargs.os)
                              /cygdrive/c/ArmToolchain/arm-linux-uclibc/bin/../../lib/libc.a(vfprintf.os) (_ppfs_prepargs)
/cygdrive/c/ArmToolchain/arm-linux-uclibc/bin/../../lib/libc.a(_ppfs_setargs.os)
                              /cygdrive/c/ArmToolchain/arm-linux-uclibc/bin/../../lib/libc.a(vfprintf.os) (_ppfs_setargs)
/cygdrive/c/ArmToolchain/arm-linux-uclibc/bin/../../lib/libc.a(_ppfs_parsespec.os)
                              /cygdrive/c/ArmToolchain/arm-linux-uclibc/bin/../../lib/libc.a(vfprintf.os) (_ppfs_parsespec)
/cygdrive/c/ArmToolchain/arm-linux-uclibc/bin/../../lib/libc.a(vswprintf.os)
                              ../SDK/lib/libseos.a(dll.o) (vswprintf)
/cygdrive/c/ArmToolchain/arm-linux-uclibc/bin/../../lib/libc.a(vfwprintf.os)
                              /cygdrive/c/ArmToolchain/arm-linux-uclibc/bin/../../lib/libc.a(vswprintf.os) (__GI_vfwprintf)
/cygdrive/c/ArmToolchain/arm-linux-uclibc/bin/../../lib/libc.a(fputws.os)
                              /cygdrive/c/ArmToolchain/arm-linux-uclibc/bin/../../lib/libc.a(vfwprintf.os) (__GI_fputws)
/cygdrive/c/ArmToolchain/arm-linux-uclibc/bin/../../lib/libc.a(fputs_unlocked.os)
                              /cygdrive/c/ArmToolchain/arm-linux-uclibc/bin/../../lib/libc.a(vfprintf.os) (__GI_fputs_unlocked)
/cygdrive/c/ArmToolchain/arm-linux-uclibc/bin/../../lib/libc.a(fwrite_unlocked.os)
                              /cygdrive/c/ArmToolchain/arm-linux-uclibc/bin/../../lib/libc.a(fputs_unlocked.os) (__GI_fwrite_unlocked)
/cygdrive/c/ArmToolchain/arm-linux-uclibc/bin/../../lib/libc.a(fputws_unlocked.os)
                              /cygdrive/c/ArmToolchain/arm-linux-uclibc/bin/../../lib/libc.a(fputws.os) (__GI_fputws_unlocked)
/cygdrive/c/ArmToolchain/arm-linux-uclibc/bin/../../lib/libc.a(memcmp.os)
                              ../obj/Src/appsetup.o (memcmp)
/cygdrive/c/ArmToolchain/arm-linux-uclibc/bin/../../lib/libc.a(memcpy.os)
                              ../obj/Src/wireless.o (memcpy)
/cygdrive/c/ArmToolchain/arm-linux-uclibc/bin/../../lib/libc.a(memmove.os)
                              ../obj/Src/MathLib.o (memmove)
/cygdrive/c/ArmToolchain/arm-linux-uclibc/bin/../../lib/libc.a(memset.os)
                              ../obj/Src/wireless.o (memset)
/cygdrive/c/ArmToolchain/arm-linux-uclibc/bin/../../lib/libc.a(strcmp.os)
                              ../obj/Src/wireless.o (strcmp)
/cygdrive/c/ArmToolchain/arm-linux-uclibc/bin/../../lib/libc.a(strlen.os)
                              ../obj/Src/appsetup.o (strlen)
/cygdrive/c/ArmToolchain/arm-linux-uclibc/bin/../../lib/libc.a(memchr.os)
                              ../obj/Src/posparams.o (memchr)
/cygdrive/c/ArmToolchain/arm-linux-uclibc/bin/../../lib/libc.a(strcat.os)
                              ../obj/Src/PosLib.o (strcat)
/cygdrive/c/ArmToolchain/arm-linux-uclibc/bin/../../lib/libc.a(strchr.os)
                              ../obj/Src/getcard.o (strchr)
/cygdrive/c/ArmToolchain/arm-linux-uclibc/bin/../../lib/libc.a(strcpy.os)
                              ../obj/Src/wireless.o (strcpy)
/cygdrive/c/ArmToolchain/arm-linux-uclibc/bin/../../lib/libc.a(strncpy.os)
                              ../obj/Src/wireless.o (strncpy)
/cygdrive/c/ArmToolchain/arm-linux-uclibc/bin/../../lib/libc.a(strnlen.os)
                              /cygdrive/c/ArmToolchain/arm-linux-uclibc/bin/../../lib/libc.a(vfprintf.os) (__GI_strnlen)
/cygdrive/c/ArmToolchain/arm-linux-uclibc/bin/../../lib/libc.a(strrchr.os)
                              ../SDK/lib/libftp.a(ftp.o) (strrchr)
/cygdrive/c/ArmToolchain/arm-linux-uclibc/bin/../../lib/libc.a(strstr.os)
                              ../obj/Src/getcard.o (strstr)
/cygdrive/c/ArmToolchain/arm-linux-uclibc/bin/../../lib/libc.a(__glibc_strerror_r.os)
                              /cygdrive/c/ArmToolchain/arm-linux-uclibc/bin/../../lib/libc.a(vfprintf.os) (__GI___glibc_strerror_r)
/cygdrive/c/ArmToolchain/arm-linux-uclibc/bin/../../lib/libc.a(__xpg_strerror_r.os)
                              /cygdrive/c/ArmToolchain/arm-linux-uclibc/bin/../../lib/libc.a(__glibc_strerror_r.os) (__GI___xpg_strerror_r)
/cygdrive/c/ArmToolchain/arm-linux-uclibc/bin/../../lib/libc.a(_string_syserrmsgs.os)
                              /cygdrive/c/ArmToolchain/arm-linux-uclibc/bin/../../lib/libc.a(__xpg_strerror_r.os) (_string_syserrmsgs)
/cygdrive/c/ArmToolchain/arm-linux-uclibc/bin/../../lib/libc.a(wcslen.os)
                              /cygdrive/c/ArmToolchain/arm-linux-uclibc/bin/../../lib/libc.a(vfwprintf.os) (__GI_wcslen)
/cygdrive/c/ArmToolchain/arm-linux-uclibc/bin/../../lib/libc.a(wcsnlen.os)
                              /cygdrive/c/ArmToolchain/arm-linux-uclibc/bin/../../lib/libc.a(vfwprintf.os) (__GI_wcsnlen)
/cygdrive/c/ArmToolchain/arm-linux-uclibc/bin/../../lib/libc.a(isatty.os)
                              /cygdrive/c/ArmToolchain/arm-linux-uclibc/bin/../../lib/libc.a(_stdio.os) (__GI_isatty)
/cygdrive/c/ArmToolchain/arm-linux-uclibc/bin/../../lib/libc.a(tcgetattr.os)
                              /cygdrive/c/ArmToolchain/arm-linux-uclibc/bin/../../lib/libc.a(isatty.os) (__GI_tcgetattr)
/cygdrive/c/ArmToolchain/arm-linux-uclibc/bin/../../lib/libc.a(ntop.os)
                              ../obj/Src/wireless.o (inet_ntop)
/cygdrive/c/ArmToolchain/arm-linux-uclibc/bin/../../lib/libc.a(inet_makeaddr.os)
                              ../SDK/lib/libftp.a(ftp.o) (inet_addr)
/cygdrive/c/ArmToolchain/arm-linux-uclibc/bin/../../lib/libc.a(raise.os)
                              /cygdrive/c/ArmToolchain/bin/../lib/gcc/arm-linux-uclibc/4.1.2/libgcc.a(_dvmd_lnx.o) (raise)
/cygdrive/c/ArmToolchain/arm-linux-uclibc/bin/../../lib/libc.a(atol.os)
                              ../obj/Src/appsetup.o (atol)
/cygdrive/c/ArmToolchain/arm-linux-uclibc/bin/../../lib/libc.a(strtol.os)
                              /cygdrive/c/ArmToolchain/arm-linux-uclibc/bin/../../lib/libc.a(atol.os) (__GI_strtol)
/cygdrive/c/ArmToolchain/arm-linux-uclibc/bin/../../lib/libc.a(_stdlib_strto_l.os)
                              /cygdrive/c/ArmToolchain/arm-linux-uclibc/bin/../../lib/libc.a(strtol.os) (_stdlib_strto_l)
/cygdrive/c/ArmToolchain/arm-linux-uclibc/bin/../../lib/libc.a(close.os)
                              /cygdrive/c/ArmToolchain/arm-linux-uclibc/bin/../../lib/libc.a(_cs_funcs.os) (__GI_close)
/cygdrive/c/ArmToolchain/arm-linux-uclibc/bin/../../lib/libc.a(getpid.os)
                              /cygdrive/c/ArmToolchain/arm-linux-uclibc/bin/../../lib/libc.a(raise.os) (__GI_getpid)
/cygdrive/c/ArmToolchain/arm-linux-uclibc/bin/../../lib/libc.a(ioctl.os)
                              /cygdrive/c/ArmToolchain/arm-linux-uclibc/bin/../../lib/libc.a(tcgetattr.os) (__GI_ioctl)
/cygdrive/c/ArmToolchain/arm-linux-uclibc/bin/../../lib/libc.a(kill.os)
                              /cygdrive/c/ArmToolchain/arm-linux-uclibc/bin/../../lib/libc.a(raise.os) (__GI_kill)
/cygdrive/c/ArmToolchain/arm-linux-uclibc/bin/../../lib/libc.a(llseek.os)
                              /cygdrive/c/ArmToolchain/arm-linux-uclibc/bin/../../lib/libc.a(_cs_funcs.os) (__GI_lseek64)
/cygdrive/c/ArmToolchain/arm-linux-uclibc/bin/../../lib/libc.a(read.os)
                              /cygdrive/c/ArmToolchain/arm-linux-uclibc/bin/../../lib/libc.a(_cs_funcs.os) (__GI_read)
/cygdrive/c/ArmToolchain/arm-linux-uclibc/bin/../../lib/libc.a(write.os)
                              /cygdrive/c/ArmToolchain/arm-linux-uclibc/bin/../../lib/libc.a(_cs_funcs.os) (__GI_write)
/cygdrive/c/ArmToolchain/arm-linux-uclibc/bin/../../lib/libc.a(btowc.os)
                              /cygdrive/c/ArmToolchain/arm-linux-uclibc/bin/../../lib/libc.a(vfwprintf.os) (__GI_btowc)
/cygdrive/c/ArmToolchain/arm-linux-uclibc/bin/../../lib/libc.a(wcrtomb.os)
                              /cygdrive/c/ArmToolchain/arm-linux-uclibc/bin/../../lib/libc.a(vfprintf.os) (__GI_wcrtomb)
/cygdrive/c/ArmToolchain/arm-linux-uclibc/bin/../../lib/libc.a(mbsrtowcs.os)
                              /cygdrive/c/ArmToolchain/arm-linux-uclibc/bin/../../lib/libc.a(vfwprintf.os) (__GI_mbsrtowcs)
/cygdrive/c/ArmToolchain/arm-linux-uclibc/bin/../../lib/libc.a(wcsrtombs.os)
                              /cygdrive/c/ArmToolchain/arm-linux-uclibc/bin/../../lib/libc.a(vfprintf.os) (__GI_wcsrtombs)
/cygdrive/c/ArmToolchain/arm-linux-uclibc/bin/../../lib/libc.a(mbsnrtowcs.os)
                              /cygdrive/c/ArmToolchain/arm-linux-uclibc/bin/../../lib/libc.a(mbsrtowcs.os) (__GI_mbsnrtowcs)
/cygdrive/c/ArmToolchain/arm-linux-uclibc/bin/../../lib/libc.a(wcsnrtombs.os)
                              /cygdrive/c/ArmToolchain/arm-linux-uclibc/bin/../../lib/libc.a(wcrtomb.os) (__GI_wcsnrtombs)
/cygdrive/c/ArmToolchain/arm-linux-uclibc/bin/../../lib/libc.a(_WRITE.os)
                              /cygdrive/c/ArmToolchain/arm-linux-uclibc/bin/../../lib/libc.a(_wcommit.os) (__stdio_WRITE)
/cygdrive/c/ArmToolchain/arm-linux-uclibc/bin/../../lib/libc.a(_fwrite.os)
                              /cygdrive/c/ArmToolchain/arm-linux-uclibc/bin/../../lib/libc.a(vfprintf.os) (__stdio_fwrite)
/cygdrive/c/ArmToolchain/arm-linux-uclibc/bin/../../lib/libc.a(_trans2w.os)
                              /cygdrive/c/ArmToolchain/arm-linux-uclibc/bin/../../lib/libc.a(vfprintf.os) (__stdio_trans2w_o)
/cygdrive/c/ArmToolchain/arm-linux-uclibc/bin/../../lib/libc.a(_load_inttype.os)
                              /cygdrive/c/ArmToolchain/arm-linux-uclibc/bin/../../lib/libc.a(vfprintf.os) (_load_inttype)
/cygdrive/c/ArmToolchain/arm-linux-uclibc/bin/../../lib/libc.a(_store_inttype.os)
                              /cygdrive/c/ArmToolchain/arm-linux-uclibc/bin/../../lib/libc.a(vfprintf.os) (_store_inttype)
/cygdrive/c/ArmToolchain/arm-linux-uclibc/bin/../../lib/libc.a(_uintmaxtostr.os)
                              /cygdrive/c/ArmToolchain/arm-linux-uclibc/bin/../../lib/libc.a(vfprintf.os) (_uintmaxtostr)
/cygdrive/c/ArmToolchain/arm-linux-uclibc/bin/../../lib/libc.a(_fpmaxtostr.os)
                              /cygdrive/c/ArmToolchain/arm-linux-uclibc/bin/../../lib/libc.a(vfprintf.os) (_fpmaxtostr)
/cygdrive/c/ArmToolchain/arm-linux-uclibc/bin/../../lib/libc.a(_wfwrite.os)
                              /cygdrive/c/ArmToolchain/arm-linux-uclibc/bin/../../lib/libc.a(vfwprintf.os) (_wstdio_fwrite)
/cygdrive/c/ArmToolchain/arm-linux-uclibc/bin/../../lib/libc.a(_memcpy.os)
                              /cygdrive/c/ArmToolchain/arm-linux-uclibc/bin/../../lib/libc.a(memcpy.os) (_memcpy)
/cygdrive/c/ArmToolchain/arm-linux-uclibc/bin/../../lib/libc.a(mempcpy.os)
                              /cygdrive/c/ArmToolchain/arm-linux-uclibc/bin/../../lib/libc.a(tcgetattr.os) (__GI_mempcpy)
/cygdrive/c/ArmToolchain/arm-linux-uclibc/bin/../../lib/libc.a(memrchr.os)
                              /cygdrive/c/ArmToolchain/arm-linux-uclibc/bin/../../lib/libc.a(_fwrite.os) (__GI_memrchr)
/cygdrive/c/ArmToolchain/arm-linux-uclibc/bin/../../lib/libc.a(wmemcpy.os)
                              /cygdrive/c/ArmToolchain/arm-linux-uclibc/bin/../../lib/libc.a(_wfwrite.os) (__GI_wmemcpy)
/cygdrive/c/ArmToolchain/arm-linux-uclibc/bin/../../lib/libc.a(inet_aton.os)
                              /cygdrive/c/ArmToolchain/arm-linux-uclibc/bin/../../lib/libc.a(inet_makeaddr.os) (__GI_inet_aton)
/cygdrive/c/ArmToolchain/arm-linux-uclibc/bin/../../lib/libc.a(fseeko.os)
                              /cygdrive/c/ArmToolchain/arm-linux-uclibc/bin/../../lib/libc.a(_trans2w.os) (__GI_fseek)
/cygdrive/c/ArmToolchain/arm-linux-uclibc/bin/../../lib/libc.a(fseeko64.os)
                              /cygdrive/c/ArmToolchain/arm-linux-uclibc/bin/../../lib/libc.a(fseeko.os) (__GI_fseeko64)
/cygdrive/c/ArmToolchain/arm-linux-uclibc/bin/../../lib/libc.a(_adjust_pos.os)
                              /cygdrive/c/ArmToolchain/arm-linux-uclibc/bin/../../lib/libc.a(fseeko64.os) (__stdio_adjust_position)
/cygdrive/c/ArmToolchain/bin/../lib/gcc/arm-linux-uclibc/4.1.2/libgcc.a(_addsubdf3.o)
                              /cygdrive/c/ArmToolchain/arm-linux-uclibc/bin/../../lib/libc.a(_fpmaxtostr.os) (__subdf3)
/cygdrive/c/ArmToolchain/bin/../lib/gcc/arm-linux-uclibc/4.1.2/libgcc.a(_muldivdf3.o)
                              /cygdrive/c/ArmToolchain/arm-linux-uclibc/bin/../../lib/libc.a(_fpmaxtostr.os) (__muldf3)
/cygdrive/c/ArmToolchain/bin/../lib/gcc/arm-linux-uclibc/4.1.2/libgcc.a(_cmpdf2.o)
                              /cygdrive/c/ArmToolchain/arm-linux-uclibc/bin/../../lib/libc.a(_fpmaxtostr.os) (__gedf2)
/cygdrive/c/ArmToolchain/bin/../lib/gcc/arm-linux-uclibc/4.1.2/libgcc.a(_fixunsdfsi.o)
                              /cygdrive/c/ArmToolchain/arm-linux-uclibc/bin/../../lib/libc.a(_fpmaxtostr.os) (__fixunsdfsi)

Allocating common symbols
Common symbol       size              file

gl_core_init        0x128             ../SDK/lib/libemv.a(emv_core_func.o)
_custom_printf_arginfo
                    0x28              /cygdrive/c/ArmToolchain/arm-linux-uclibc/bin/../../lib/libc.a(_ppfs_parsespec.os)
_custom_printf_handler
                    0x28              /cygdrive/c/ArmToolchain/arm-linux-uclibc/bin/../../lib/libc.a(_ppfs_parsespec.os)

Memory Configuration

Name             Origin             Length             Attributes
*default*        0x00000000         0xffffffff

Linker script and memory map


.text           0x28000000    0x737c4
                0x28000000                Image__text__Base = .
 *(.text .stub .text.* .gnu.linkonce.t.*)
 .text          0x28000000       0x3c ../obj/Src/init.o
                0x28000000                entry_point
 .text          0x2800003c     0x29b8 ../obj/Src/wireless.o
                0x2800081c                SetRS232Param
                0x28002120                SetWirelessParam
                0x28000a98                SetIpAddr
                0x28002748                SetWirelessIPPort
                0x28001df0                SetWIFIParam
                0x280003c8                SetAcqTransTelNo
                0x28000cfc                SetWiFiLoaclIPCfg
                0x280002b4                PreDial
                0x280025cc                SetCurCommParam
                0x28000bd0                SetTcpIpParam
                0x28001160                SelectAndSetWIFIAP
                0x28000360                SetModemParam
                0x280001e0                CheckPreDial
                0x2800003c                NacTxd
 .text          0x280029f4     0x4990 ../obj/Src/appsetup.o
                0x28002aa0                CheckParamOpen
                0x28004bdc                SetDispLanguage
                0x28002ae4                SetErrPrnTicketNum
                0x28006e2c                SetupPosPara
                0x28004dd0                DeviceTest
                0x28002cec                ChangeSafePwd
                0x280035d0                SetPrintTicketNum
                0x28004e94                SetTransFlow
                0x28006014                SetupTranFunc
                0x28002b8c                MaskTrans
                0x28006488                SetTpduOutTime
                0x28005efc                ChangePwdFunc
                0x2800380c                SetTranMaxNumber
                0x28004930                TipperSetup
                0x28005d94                SetTestStatus
                0x28006174                ClearFile
                0x28004a20                AutoLogoutSetup
                0x28003964                SetTransMask
                0x28006330                OtherFunc
                0x28005200                GenDownloadKeyFromMainPos
                0x28006910                SetCurCommType
                0x28006f70                FTPParam
                0x28004ad8                SetTranResendTime
                0x280029f4                SelectSetTwo
                0x28004d24                TestPrint
                0x28005730                SetMasterKeys
                0x28006aa8                SetupTerminalPara
                0x280036b4                SetMaxOfflineNums
                0x28002f8c                ChangeSysPwd
                0x28002cb0                DispMulLanguageString
                0x28003258                PrintParam
 .text          0x28007384      0x5dc ../obj/Src/ChkOption.o
                0x28007584                ChkIfCreditTxn
                0x28007750                ChkAcceptTxnCode
                0x280075b8                ChkIfSaleTxn
                0x280076f0                ChkExTxnLog
                0x2800752c                ChkIfDebitTxn
                0x2800782c                ChkIfBlkCard
                0x280074a4                ChkIfUpdateLog
                0x28007384                ChkIfSaveLog
                0x2800768c                ChkSetPartSaleFlag
                0x28007728                ChkOnlyEcCard
                0x28007610                ChkIfPrtDetill
 .text          0x28007960     0x2964 ../obj/Src/Commlib.o
                0x28008574                CommOnHook
                0x28009460                CommDial
                0x28009f74                CommSetCfgParam
                0x28008408                DispCommErrMsg
                0x2800a110                CommInitModule
                0x28007bac                InitWiFiModule
                0x28007960                GetCurSocket
                0x28008f08                CommTxd
                0x280079e0                GetWiFiStatus
                0x2800804c                WirelessClose
                0x28008244                CommGetErrMsg
                0x280086ac                CommRxd
 .text          0x2800a2c4      0xc9c ../obj/Src/devicetest.o
                0x2800aa84                GetKeyDescription
                0x2800ae88                PosDeviceDetect
                0x2800a5f0                LcdTest
                0x2800ad34                KeyboardTest
                0x2800a2c4                MagTest
 .text          0x2800af60      0x3e8 ../obj/Src/Display.o
                0x2800b320                Display2StringInRect
                0x2800b2cc                Display2Strings
                0x2800af60                DisplayMainPosErrMsg
                0x2800b1b4                DrawRect
                0x2800b278                DisplayProcessing
                0x2800b128                DisplayMainPosOperFailed
 .text          0x2800b348     0x1b80 ../obj/Src/getcard.o
                0x2800c530                GetTrackData
                0x2800b358                DispContackLessProcessing
                0x2800c990                DetectCardEvent
                0x2800b3e8                SelectSamAPP
                0x2800c460                ManualEntryCardNo
                0x2800bd94                MaskPan
                0x2800c6dc                ShowGetCardScreen
                0x2800c594                ManualEntryExpDate
                0x2800be24                DispCardNo
                0x2800b348                DispRemoveICC
                0x2800b3a0                DispICCProcessing
                0x2800b864                GetEdEpBalance
                0x2800ce80                IsEmvCard
                0x2800bab8                VerifyUserPwd
                0x2800c508                WaitRemoveICC
                0x2800cbcc                PosGetCard
                0x2800b9cc                GetCardNoFromTrack
                0x2800b490                CheckPSamCard
                0x2800bf14                InsertEdCardProc
                0x2800cb3c                PosGetEdCard
 .text          0x2800cec8       0x10 ../obj/Src/globalvar.o
                0x2800cec8                lcdFlip
 .text          0x2800ced8     0x2480 ../obj/Src/main.o
                0x2800ced8                CheckSupport
                0x2800e2a4                SetParaFunc
                0x2800ebb8                EMVCoreInit
                0x2800d260                GetPosCapablity
                0x2800e8a0                InitAllTransData
                0x2800ef8c                CheckPedStatus
                0x2800e754                InitCommData
                0x2800d840                CheckParamPass
                0x2800ef0c                DispResult
                0x2800d98c                DispTermInfo
                0x2800e2c4                ProcEvent
                0x2800d7b4                TxtToEnv
                0x2800f034                main
                0x2800e8e8                AppFirstRun
                0x2800d52c                PabxSetup
                0x2800da3c                ProcSelectTran
                0x2800d6f8                ReadParamsFile
                0x2800ee0c                InitPos
                0x2800e4dc                TermCheck
                0x2800e660                DispMainScreen
                0x2800e400                CheckLimitTotal
 .text          0x2800f358      0xe80 ../obj/Src/MathLib.o
                0x2800f70c                PubBcdDec
                0x2800f918                PubAscSub
                0x2800f490                PubStrUpper
                0x2800fd78                PubAscMul
                0x2800fc50                PubTrimStr
                0x2800f404                PubLong2Char
                0x2800fecc                PubAddHeadChars
                0x28010174                PubLong2Bcd
                0x2800f648                PubLow4Bit
                0x2800f6b4                PubAscInc
                0x2800f7f0                PubCalcLRC
                0x28010104                PubBcdAdd
                0x2800f65c                PubAscDec
                0x2800f440                PubChar2Long
                0x2800f390                PubBcd2Asc
                0x2800ffb8                PubAsc2Long
                0x2800fad4                PubTrimTailChars
                0x2800f4d4                PubTrimHeadChars
                0x2800fb58                PubTrimSpcStr
                0x28010008                PubAsc2Bcd
                0x2800f780                PubBcdInc
                0x2800f8c8                PubStrReverse
                0x2800f358                PubXor
                0x2800f828                PubGetCRC
                0x2800f548                PubStrNoCaseCmp
                0x2800f9f8                PubAscAdd
                0x2800ff20                PubStrLower
                0x2800f3e0                PubBcd2Asc0
                0x2800ff60                PubBcd2Long
                0x28010094                PubBcdSub
                0x2800f61c                PubHigh4Bit
 .text          0x280101d8      0x28c ../obj/Src/New8110_ICC.o
                0x2801043c                New8110_icc_Init
                0x2801028c                contactness_close
                0x280101d8                contactness_exchangeapdu
                0x280103f0                New8110_icc_poweroff
                0x2801040c                New8110_icc_powerup
                0x280101f8                contactness_poweroff
                0x28010278                contactness_poll
                0x280102c8                New8110_icc_exchange_apdu
                0x2801020c                contactness_poweredon
                0x280102ac                contactness_open
 .text          0x28010464     0x104c ../obj/Src/NewPosApi.o
                0x28010f58                OkBeep
                0x28010d0c                LongToDec
                0x28010814                BcdToLong
                0x28010a84                CheckYYMM
                0x28010f3c                FailBeep
                0x2801093c                DataHigh4Bit
                0x280113c0                DispDateTime
                0x28010790                AscToBcd
                0x28011074                OptionsSelect
                0x28010e44                ConvBcdAmount
                0x28010884                ByteToShort
                0x28010fb4                OneTwoSelect
                0x28010688                BcdToAsc
                0x28010af4                CheckTime
                0x28010710                BcdToAsc0
                0x28010968                AscToLong
                0x280108c4                dat_asclen
                0x28010464                apiConvAmount
                0x28010ee4                LongToAmount
                0x28010f90                ErrorBeep
                0x280109cc                BcdAdd
                0x2801116c                DispMenu
                0x280108a0                ShortToByte
                0x28010ba4                CheckDate
                0x28010954                DataLow4Bit
 .text          0x280114b0     0x1c1c ../obj/Src/opermanage.o
                0x280114b0                CheckTellerPwd
                0x28012bb4                SupTellerFunc
                0x28012c58                TellerManageMenu
                0x280124fc                TellerAdd
                0x280120a8                TellerDel
                0x28011698                SupChgPwd
                0x28012a94                TellerShow
                0x28012cfc                TellerLogon
                0x28011968                TellerRunLock
                0x28011ca4                TellerChgPwd
                0x280115a4                CheckSupPwd
 .text          0x280130cc     0x4180 ../obj/Src/otherfunc.o
                0x28015a20                ConvErrCode
                0x28013200                vOne2Two0
                0x28016784                calculate_dial_statics
                0x2801322c                vTwo2One
                0x28013924                DispTransName
                0x2801319c                vOne2Two
                0x280162ac                LogonFunc
                0x28013544                vNacSend
                0x28014ea0                SwipeCardProc
                0x2801511c                time_diff
                0x28013490                vBcd2Long
                0x2801610c                SelectPosManFunc
                0x28016754                init_dial_statics
                0x280130cc                IsLeapYear
                0x28014f8c                GetDays
                0x280151c8                GetTransName
                0x28013fd0                MatchTrack2AndPan
                0x28016f24                AppEnrichGetAmount
                0x28013144                AmountIsZero
                0x28016050                M1SelectPrintFunc
                0x28016350                SelectTrans
                0x28014678                GetEmvTrackData
                0x28013674                uiPortRecvBuf
                0x28016b98                AppGetAmount
                0x28015d40                dispRetCode
                0x280132d0                SetEmvTranType
                0x2801383c                ViewEmvResult
                0x280140a8                ContackCardProc
                0x28016688                write_stat_time
                0x2801403c                RemoveTailChars
                0x28015f94                SelectPrintFunc
                0x28013e18                ModifyTermCapForApp
                0x28013708                uiNacRecv
                0x280149b0                InsertCardProc
                0x28016aec                AppConfirmAmount
                0x28016990                WaitEvent
                0x28016628                GetPosTime
                0x280134d4                vLong2Bcd
                0x280150bc                GetEpoch
 .text          0x2801724c     0x5690 ../obj/Src/posfiles.o
                0x2801c704                UpdataTxnCtrlStatus
                0x2801c2b8                SaveLimitTotal
                0x28017540                ReadScriptFile
                0x2801a104                reprintTrans
                0x2801c180                ReadM1EnrichLastTotal
                0x2801c520                ReadOperFile
                0x2801b4b8                SaveBlkCard
                0x2801c660                SaveCtrlParam
                0x28018568                M1_QueryTransTotal
                0x2801afd4                DispFileErrInfo
                0x28017280                GetOfflineTxnNums
                0x28019554                queryTrans
                0x280176bc                UpdateTranLog
                0x280174b4                LoadTranLog
                0x2801c774                SaveLogFile
                0x28019f4c                PrintDetail
                0x2801c47c                WriteOperFile
                0x28017628                ReadTermAidList
                0x2801b7fc                LoadAppParam
                0x2801a5f4                ComputeTransTotal
                0x2801b41c                LoadBlkCard
                0x280196f0                queryDetail
                0x28017390                ReadYtkEnrichLog
                0x28017e40                GetTransStatusInfo
                0x2801bec4                SaveRefundDataFile
                0x280177b4                write_data
                0x280178cc                SaveM1EnrichLog
                0x2801b55c                emvLoadCAPKList
                0x2801bfac                SaveLastTotal
                0x280175ac                read_data
                0x2801bdd4                CheckRefundDataFile
                0x28017304                GetMinSendTimesTxn
                0x28017748                WriteScriptFile
                0x2801c0e4                SaveM1EnrichLastTotal
                0x28018970                M1_queryTrans
                0x28019104                DispOneTrans
                0x28017f40                UpdateLogFile
                0x2801724c                ClearAllTxnStatus
                0x2801c354                update_limit_total
                0x2801c21c                ReadLimitTotal
                0x28019d28                Prt_Detail_LS
                0x2801b6ac                emvLoadAIDList
                0x2801870c                Prt_Any_LS
                0x28018d04                M1_queryDetail
                0x2801a37c                M1reprintTrans
                0x2801820c                CheckData
                0x2801b92c                LoadDefaultAppParam
                0x2801b604                emvSaveCAPKList
                0x2801c734                SetTxnCtrlStatus
                0x2801abe4                QueryTransTotal
                0x2801b890                SaveAppParam
                0x28017840                WriteEnrichFtpFile
                0x28017b68                AdjustAppParam
                0x280188c0                Prt_Last_LS
                0x280180f0                DispOrignalTrans
                0x2801b754                emvSaveAIDList
                0x2801c5c4                ReadCtrlParam
                0x2801c048                ReadLastTotal
                0x28019858                Prt_Total_LS
 .text          0x2801c8dc     0x2ee8 ../obj/Src/PosLib.o
                0x2801edbc                PubBeepErr
                0x2801d220                PubHalt
                0x2801eda0                PubLongBeep
                0x2801cad8                PubCalcMac
                0x2801c980                PubCheckCHNString
                0x2801f730                PubBeepOk
                0x2801d09c                PubDispString
                0x2801cc2c                PubFileWriteEX
                0x2801d3b4                PubGetMenuEx
                0x2801c9f4                PubDes
                0x2801cd78                PubFileReadEX
                0x2801f764                PubCheckPosPower
                0x2801d2dc                PubGetBoolParam
                0x2801cf24                PubConvAmount
                0x2801ceec                PubShowTwoMsg
                0x2801ed80                PubChkKeyInput
                0x2801ed44                PubYesNo
                0x2801f32c                PubGetAmount
                0x2801e078                PubGetMenu
                0x2801cbd8                PubFWriteN
                0x2801ede0                PubGetString
                0x2801d18c                PubDisplayTitle
                0x2801ce70                PubDisplayMsg
                0x2801d2a0                PubWaitKey
                0x2801ccb0                PubFileWrite
                0x2801cd24                PubFReadN
                0x2801cdfc                PubFileRead
 .text          0x2801f7c4      0x6e8 ../obj/Src/posparams.o
                0x2801fa14                GetParams
                0x2801f810                GetParamfileName
 .text          0x2801feac      0xea4 ../obj/Src/pospin.o
                0x2801ff14                DisplayLoyaltBalance
                0x280209f8                EnterPIN
                0x280206e4                CalMAC
                0x28020064                LogonDivKey
                0x280208c4                DispBalance
                0x2801feac                ExtractPAN
 .text          0x28020d50      0x2b4 ../obj/Src/Rs232lib.o
                0x28020fd8                Rs232Open
                0x28020f6c                Rs232CheckPurge
                0x28020fb0                Rs232Close
                0x28020f44                Rs232ResetPurge
                0x28020ec0                MainPosRS232Txd
                0x28020d50                MainPosRS232Rxd
 .text          0x28021004     0x2080 ../obj/Src/trancomm.o
                0x28022c4c                ReverseTranProc
                0x280227ec                RecvPacket
                0x28021004                TranNeedReversal
                0x28021e4c                ProcRspPacket
                0x28021144                HaveMacData
                0x280211e4                AdjustCommParam
                0x2802250c                UpdateReversalFile
                0x2802248c                SaveReversalTranData
                0x28022834                SendPacket
                0x28022278                MakeReqPacket
                0x28021d20                TrickleFeedOffLineTxn
                0x2802267c                CommHangUp
                0x28022eac                OnlineCommProc
                0x28021bf0                TrickleFeedICOffLineTxn
                0x28021370                IncreaseTraceNo
                0x2802286c                SendRecvPacket
                0x280213d0                SaveRspPackData
                0x28021854                MakeReversalPack
                0x280210b0                TranNeedIncTraceNo
                0x28022410                ReadReversalTranData
                0x28022694                ConnectHost
 .text          0x28023084     0x5c68 ../obj/Src/tranprint.o
                0x28026058                PrtTranDetailHead
                0x28023f14                GetBankChnName
                0x280241d4                PrnSmallFontData
                0x280274bc                PrintAmount
                0x280250a4                PrintOneErrOffTrans
                0x28026bc4                PrtM1TranEnrichTicket
                0x28024900                PrtOneTranTxn
                0x280263a4                PrtM1TranSaleTicket
                0x280251c8                PrtNowTotal
                0x280255a8                PrtTransTotal
                0x28024c18                PrnBigFontChnData
                0x280242e8                PrintAddtionalInfo
                0x28023f94                DispPrnErrInfo
                0x28023084                MakeFormatCardNo
                0x28027948                PrtTranTicket
                0x28023e5c                GetEntryMode
                0x280274a8                PrnBigFontEngData
                0x280240e8                PrintData
                0x28026390                PrnNormalFontData
                0x280260c8                PrintAllErrOffTrans
                0x28024d30                PrnEmvParam
                0x28025de4                PrtM1EnrichTotal
                0x28023104                GetTransPrtName
 .text          0x28028cec     0x8380 ../obj/Src/tranproc.o
                0x2802d11c                OnlineSale
                0x28030edc                OfflineSale
                0x28029f34                UnpackTlvData
                0x28028e2c                ICNeedPIN
                0x2802d0e0                PreAuth
                0x28028cec                NeedPIN
                0x2802a480                GetTxnTableIndex
                0x2802fccc                AfterSettleTran
                0x2802e580                AuthComfirmGetData
                0x28029bd4                SaveAppParamItem
                0x2802a3ac                SaleTranGetData
                0x2802da18                GetAuthType
                0x2802baa8                SendICCOffLineTrans
                0x2802d9a8                PreAuthAdd
                0x280309d4                AfterCommProc
                0x2802930c                MakeTermStatusData
                0x2802a304                PreAuthGetData
                0x28030f1c                VoidSaleAuth
                0x2802e40c                PreAuthVoidGetData
                0x2802a4f8                SetCommField60
                0x2802d918                PreAuthAddInput
                0x2802f278                BatchSendOffTrans2_Refund
                0x28029548                SaveNewEmvCapk
                0x2802e2b8                GetOrignTxnDate
                0x2802d3bc                SendOffLineTrans
                0x28029a6c                SaveEmvAppParam
                0x2802ddac                UpdateParameters
                0x2802d7a8                PosOnlineLogoff
                0x2802905c                SaveOneAid
                0x2802effc                BatchSendOffTrans2_CM
                0x2802997c                UpdateCoreCapkInfo
                0x2802be7c                PosUpLoadParam
                0x2802a20c                CheckAdjustAmt
                0x2802b548                BatchSendICCOnLineTrans
                0x2802d854                GetAuthNo
                0x2802cf9c                TestResponse
                0x2802e6b8                OfflineAuthConfirm
                0x2802d158                BatchSendOffTrans1
                0x2802dc24                OffSaleGetData
                0x2802e4f0                VoidPreAuth
                0x28028ec0                UpdateEntryModeByPIN
                0x280297e8                SaveCapkInfoItem
                0x2802cbd8                DownLoadCAPK
                0x280304a0                PosOnlineLogon
                0x2802b4fc                TransBatchUpLoadFailureTxn
                0x2802e9b4                RefundTran
                0x2802c68c                QueryEmvParam
                0x28029694                SaveEmvCapkItem
                0x2802c144                FinishDownLoad
                0x280290f4                SearchCapkInfo
                0x2802a670                SetCommReqField
                0x2802c7f4                DownLoadEmvParam
                0x2802e148                PosDownLoadParam
                0x28030e5c                OfflineAdjust
                0x2802fdbc                PosBatchSendTran
                0x2802d048                QueryBalance
                0x2802afe8                TransBatchUpLoadIccAACTxn
                0x2802ff30                PosSettleTran
                0x2802f518                BatchMagOnLineTrans
                0x2802b7c8                BatchICCOffLineTrans
                0x2802fa70                PosBatchUp
                0x2802e74c                OnlineAuthConfirm
                0x2802ed78                SaleVoidGetData
                0x2802ea68                GetOldTraceNo
                0x2802eb3c                AdjustTranGetData
                0x2802c288                TransDownloadBlkCard
                0x2802bfb4                QueryEmvCapk
                0x2802b274                TransBatchUpLoadIccFailureTxn
                0x280303cc                PosOperLogon
                0x2802e7e0                RefundTranGetData
                0x280308ac                OnlineDownOrUp
                0x2802dce8                GetSysRefNo
                0x28029fa8                SelectCardUnit
                0x2802916c                EncrypteFieldTrac23
 .text          0x2803106c      0x72c ../obj/Src/m1_card/m1_card_proc.o
                0x280313c4                ProcContEventRead
                0x2803106c                PubChar2LongEx
                0x28031554                M1_ReadSector
                0x28031714                M1_mifClose
                0x28031398                M1_WriteBlock
                0x28031620                M1_WaitCard
                0x28031574                M1_DispErrInfo
                0x2803136c                M1_Decrement
                0x280316d4                M1_mifResetRF
                0x28031754                M1_mifOpen
                0x280310dc                ProcContEventWrite
 .text          0x28031798      0x34c ../obj/Src/showDebug/showDebug.o
                0x28031798                SaveToDebugLog
                0x28031804                ListenComm
                0x280318d8                showDebugMessage
 .text          0x28031ae4     0x9a94 ../obj/Src/m1_tranproc.o
                0x28031b20                GetFtpFiletotal
                0x280338b0                ResetPsam
                0x280336ac                InListPassive
                0x28035c70                TDEACBCDecry
                0x28033720                SamReset
                0x280321b0                GetAllDataFromM1Card
                0x28031c34                Verifybyte
                0x28035f34                GetMAC
                0x280326e0                M1_IsCardInfoLegal
                0x28035278                M1_Sale
                0x28038dd0                M1_Data_UpLoad_TCP
                0x2803413c                CPU_ReadEnrichData
                0x28031e18                VeryfyWalletData
                0x280328fc                M1_RchAmtProcess
                0x280337ec                SocketSet
                0x28033314                GetSecPW
                0x2803a534                COM_SendRecvData
                0x280324ec                CheckData_Sectors2
                0x28031b98                GetBlockVerifybyte
                0x280328c4                M1_IncValue
                0x280375b8                M1_SettDate_Upload
                0x28032d54                ConfirmCardPassword
                0x28032f74                GetPsamId
                0x28031b5c                GetFtpFilePosition
                0x280381d0                M1_SaleDate_Upload
                0x28032224                M1_RchSwipCardAgain
                0x28039de4                Agent_Update
                0x28031eb0                VerifyStartUse
                0x28036cdc                M1_Enrich
                0x28033870                ResetPsamZJB
                0x28039428                M1_Sett
                0x28036404                M1_Que_Sett
                0x28031fd8                VeryfyCard_Sectors1
                0x2803359c                SAMGetRandom
                0x28035dc0                TDEACBCEnry
                0x28031bcc                Check_valid_purse
                0x28039a28                Login
                0x280361e4                M1_Que_NotUploadFile
                0x280367c0                CPU_EnrichWriteData
                0x2803272c                M1_DecValue
                0x280323f8                M1_BlocktoBlockValue
                0x28031ae4                FindEnrichStoreFilePosition
                0x2803a0c4                M1_Data_UpLoad
                0x28031c74                ChkContactlessCardPad
                0x2803213c                PubLong2CharEx
                0x2803392c                GetEnrichFileName
                0x28032764                M1_SaleProcess
                0x2803adf8                M1_ReadCard
                0x28032c48                ConfirmDevelopersPassword
                0x2803ad94                M1_Sett_Prt
                0x2803a7bc                M1_Data_UpLoad_COM
                0x28033088                M1_GetCalKeyA
                0x2803397c                PackFTP
                0x280365b8                EnrichAuthenticate
                0x2803457c                CPU_SaleWriteData
                0x28033cf4                CPU_ReadSaleCard
                0x28032e60                GetTellNo
                0x280338ec                ResetPsam2
 .text          0x2803b578      0xd88 ../obj/Src/LocalFtp.o
                0x2803becc                NewFtpPutFile
                0x2803b98c                NewFtpGetFile
                0x2803b578                ftp_debug
                0x2803bb80                NewFtpPut
                0x2803b638                NewFtpGetSize
                0x2803b594                NewFtpLogon
                0x2803b688                NewFtpDownLoad
                0x2803bd08                ftp_get_data
                0x2803b948                NewFtpQuit
                0x2803b7c4                ftp_store_data
                0x2803c0b0                ftpDemo
 .text          0x2803c300      0x4fc ../obj/Src/NewTime.o
                0x2803c3bc                SYS_MKTIME
                0x2803c680                CalcTime
                0x2803c718                SYS_TIME
                0x2803c66c                SYS_LOCALTIME
                0x2803c404                SYS_GMTIME
 .text          0x2803c7fc        0x0 ../obj/Src/st8583.o
 .text          0x2803c7fc     0x3774 ../obj/Src/emvtranproc.o
                0x2803e5f0                emv_check_certificate
                0x2803cb88                CalcTLVTotalLen
                0x2803ebac                emvGetOnlinePIN
                0x2803f7a8                emvCheckExceptPAN
                0x2803d1f4                AdjustIssuerScript
                0x2803c7fc                LongToStr
                0x2803d998                SaveScriptResult
                0x2803c828                cEMVUnknowTLVData
                0x2803ec20                emv_check_online_pin
                0x2803d0e8                SaveScriptData
                0x2803e16c                emv_advice_process
                0x2803cb28                PackTLVHead
                0x2803d42c                SendScriptResult
                0x2803e494                emv_return_pin_verify_result
                0x2803ed54                emv_online_transaction_process
                0x2803cf30                PackScriptData
                0x2803eb40                emvDispPINOK
                0x2803e84c                emv_multi_language_selection
                0x2803db04                SetIssuerName
                0x2803e190                ProcEmvTran
                0x2803caac                PackTLVTag
                0x2803f5c4                emvGetTransAmount
                0x2803d974                emvCheckCRL
                0x2803cbd0                auxLongToBCD
                0x2803f848                emv_candidate_apps_selection
                0x2803dfb0                UpdateEcRevFile
                0x2803f770                emvGetTransLogAmount
                0x2803e040                UpdateEmvRevFile
                0x2803c928                GetTlvValue
                0x2803cae4                PackTLVLength
                0x2803dd34                SaveEmvTranData
                0x2803d80c                SetOnlineTranDE55
                0x2803f388                emv_get_amount
                0x2803c86c                IsConstructedTag
                0x2803f57c                emvInputTransAmount
                0x2803f520                emvInputCashBackAmount
                0x2803d360                SaveRspICCData
                0x2803c858                emvCertCheck
                0x2803d2f0                MakeTlvString
                0x2803ecd8                asc2ulong
                0x2803c8c8                Char2Long
                0x2803f1d0                emv_issuer_referral_process
                0x2803cc64                SavePrintICCData
                0x2803ea34                emv_get_pin
 .text          0x2803ff70        0x0 ../obj/Src/emvtrantest.o
 .text          0x2803ff70     0x59ec ../obj/Src/Menu.o
                0x28043834                TransEcTopup
                0x28044178                SelectInstalFunc
                0x28043ffc                SelectLoyaltFunc
                0x280444c0                GetMobileCardInfo
                0x28044338                SelectEcFunc
                0x280423bc                TransEcBalance
                0x28045868                TransMobileSale
                0x28040dc4                GetEcElementData
                0x28041c60                TransEdSale
                0x280454cc                TransVoidMobileSale
                0x280405d8                TransVoidInstal
                0x280402f0                TransVoidLoyalt
                0x28042894                TransEcViewRecord
                0x28043eb4                SelectMobileFunc
                0x28043148                TransEcRefund
                0x28044200                SelectEdFunc
                0x28044f70                TransMobileVoidPreAuth
                0x28040eec                TransEdViewRecord
                0x28044bc0                TransMobileBalance
                0x280407e8                TransLoyalt
                0x2804005c                TransQueryLoyalt
                0x280414ec                TransEdTopup
                0x28044cd0                TransMobileRefund
                0x280400f4                TransRefundLoyalt
                0x28045344                TransMobilePreAuth
                0x2803ff70                TransLytLogon
                0x28044ac4                PosGetMobileCard
                0x28043b80                TransEcSale
                0x28043554                TransEcVoidTopup
                0x28045144                TransMobileAuth
                0x280412ec                TransEdBalance
                0x28040a30                TransInstallment
 .text          0x2804595c     0x27d4 ../obj/Src/otherTxn.o
                0x28046258                TransValidAcct
                0x28046438                TransmagTopupConfirm
                0x2804595c                TransPartSale
                0x28047cfc                TransMotoAuth
                0x2804674c                SelectMagTopupFunc
                0x28047100                TransMagTopupCash
                0x28047f20                TransMotoPreAuth
                0x280467d4                SelectMotoFunc
                0x2804766c                TransBookSale
                0x28048028                TransMotoSale
                0x28046f3c                TransVoidBookSale
                0x2804794c                GetMotoDate
                0x28047ba8                TransMotoVoidPreAuth
                0x280478f4                PosGetOrderCard
                0x28045f3c                TransVoidMotoSale
                0x28046984                TransMagTopupAcct
                0x280468fc                SelectBookFunc
                0x28045d0c                TransMotoRefund
 .text          0x28048130      0xe3c ../obj/Src/pack8583.o
                0x280484fc                iUnPack8583
                0x28048c88                iPack8583
 .text          0x28048f6c     0x1974 ../obj/Src/qpbocProc.o
                0x28049034                ReadIccFailureFile
                0x2804a450                TransQpbocPreProc
                0x28049f64                TransEcQuickSale
                0x2804a078                DisplayQpbocBalance
                0x2804a814                ProcQpbocTran
                0x2804a160                DisplayQpbocError
                0x28048f94                UpDateIccFailureFile
                0x28049104                TransBatchUploadQpbocFailureTxnLog
                0x280495f4                SaveIccFailureFile
                0x28049a80                GetAndSetQpbocElement
                0x28048f6c                CheckQpbocMaxAmount
                0x2804968c                SaveIccFailureTranData
                0x28048f80                GetMaxQpbocCfgAmount
                0x28049390                ViewIccFailureLog
 .text          0x2804a8e0     0x8060 ../SDK/lib/libseos.a(dll.o)
                0x2805144c                PosixSystem
                0x2804c30c                iccExchangeAPDU
                0x2804d220                PedGetConfig
                0x2804db70                sleCardPowerDown
                0x2804b6c0                aes_cfb8_encrypt
                0x2804e7ec                WnetReset
                0x2804e074                NetSetTCPIPCfg
                0x2804aa40                sysBeep
                0x280525b8                prnPrintf
                0x2804da90                portCheckSendBuf
                0x28050ec4                PosixReaddir
                0x280504bc                mifPLTransfer
                0x2804e340                NetAccept
                0x2804b070                Hash
                0x2804c360                iccPowerDown
                0x2805059c                PosixRead
                0x2804dbf0                sleCardReadSCErr
                0x28050644                PosixLseek
                0x28052130                PosixGethostbyname2
                0x2804fa88                mifProcess
                0x28051ed0                mif_open
                0x2804f934                mifWupB
                0x28050908                PosixStat
                0x2804ee68                Sms_Cmgs
                0x2804fbb4                InListPassiveTarget
                0x28051490                PosixCfgetospeed
                0x2804f0b4                WifiPing
                0x2804b2fc                md5_update
                0x2804b7a0                aes_ofb128_encrypt
                0x2804b2c0                md5_init
                0x2804c434                prnSetSpace
                0x2804c0f8                magOpen
                0x2804f890                mifWriteULData16
                0x2804ba24                font_get_dot
                0x2804cebc                fileToPubKey
                0x2804cad4                fileFreeSpace
                0x2804ad7c                sysEncode2bmp
                0x2804aef0                sysClipboardWrite
                0x2804eb28                Stk_Init
                0x2804ab30                sysGetTimerCount
                0x2804df24                PPPLogin
                0x28051d64                modem_enter_auto_answer
                0x2804d308                PedWritePinKey
                0x2804bc64                kbGetHZ
                0x2804ead8                WPhoneSendDTMF
                0x280517fc                PosixShutdown
                0x2804c270                iccDetect
                0x2804dfe0                PPPCheck
                0x2804d718                PedTDEA
                0x2804bd7c                lcdCls
                0x2804d7e8                PedGetSensitiveTimer
                0x2804c534                prnStep
                0x2804cb58                fileGetInfo
                0x2804cce8                fileRenameExt
                0x2804cc48                fileExistExt
                0x28050a34                PosixChmod
                0x2804a90c                sysCheckFirstRun
                0x2804ac28                sysPowerOff
                0x2804b010                CalcCRC16
                0x2804f66c                mifRestore
                0x2804fe44                mifGetTimeOut
                0x28050508                mifPLRestore
                0x2804e394                NetSend
                0x2804ca44                fileRemove
                0x28050b74                PosixLchown
                0x28051780                PosixExit
                0x2804f49c                mifAuthByE2
                0x2804d8b4                DukptLoadInitKeyExt
                0x2804b428                aes_set_decrypt_key
                0x2804cc9c                fileRename
                0x2804dd68                sleCardReadStatus
                0x28051e3c                modem_check_extension
                0x2804c8b4                fileSeek
                0x2804d630                PedGetOffLineCipherPin
                0x2804f100                WifiGetMAC
                0x2804c73c                prnSetFontZoom
                0x2804ac88                sysGetPowerStatus
                0x2804c858                fileOpenExt
                0x2804bf4c                lcdSetIcon
                0x28051244                PosixGetsockopt
                0x280516a0                PosixTcdrain
                0x2804af90                sysGetCPU_UniqueSN
                0x28050100                mifPLWritePerso
                0x2804dc38                sleCardChangeSC
                0x28050e34                PosixRmdir
                0x2804d910                portOpen
                0x2804c908                fileRead
                0x2805035c                mifPLIncrement
                0x2804be74                lcdSetInverse
                0x2804f6b4                mifTransfer
                0x2804c3a8                iccWarmReset
                0x28051b08                modem_dialing
                0x2804e248                NetConnect
                0x2804f620                mifDecrement
                0x2804de9c                at24cxxWrite
                0x2804bbfc                kbGetString
                0x2804dad8                portCheckRecvBuf
                0x2805113c                PosixListen
                0x28050874                PosixDup2
                0x2804ca8c                fileSize
                0x2804c478                prnLeftIndent
                0x28051b9c                modem_get_status
                0x2804f274                mifWupA
                0x2804ff64                mif_send_command
                0x2804faf0                mifExchangeAPDU
                0x2805249c                PosixOpen
                0x2804ed2c                Sms_SetCSCA
                0x2804e3f0                NetRecv
                0x2804fa40                mifHaltB
                0x28051904                ReadDllVer
                0x2804cba0                fileRemoveExt
                0x2804f06c                WifiSoftReset
                0x2804b8ec                aes_bi_ige_encrypt
                0x28052014                emv_contactless_get_lasterror
                0x2804be30                lcdGoto
                0x2804b4c8                aes_decrypt
                0x2804f148                mifOpen
                0x2804bacc                kbhit
                0x2804af40                sysSetPowerOffLogo
                0x28052034                emv_contactless_exchange_apdu
                0x2804cda4                appReadState
                0x2804e4c0                NetRecvfrom
                0x2804de48                at24cxxRead
                0x2804d958                portClose
                0x28051b54                modem_hangup
                0x2805002c                mif_get_status
                0x28050f6c                PosixClosedir
                0x2804e154                Wnet_GetDnsServer
                0x28050238                mifPLWriteBlock
                0x28050c68                PosixMknod
                0x2804b18c                TDEA
                0x2804b80c                aes_ctr128_encrypt
                0x28050154                mifPLCommitPerso
                0x2804fe04                mifSetTimeOut
                0x2804a8e0                SwiTranfer
                0x2804ffa8                mif_get_response
                0x2804df98                PPPLogout
                0x2804ab68                sysDelayMs
                0x2804e534                NetClose
                0x2804d4f0                PedGetPinDukpt
                0x2804f6fc                mifWriteKey
                0x2804e8ac                WnetInputSimPin
                0x2804d794                PedDelKey
                0x2804c190                magSwiped
                0x2804f990                mifSlotMarker
                0x2804f440                mifAuthByKey
                0x2804f7a4                mifReadE2
                0x2804b514                aes_ecb_encrypt
                0x2804d9f4                portRecv
                0x2804e29c                NetConnectURL
                0x2804ee20                Sms_Cmgd
                0x2804efd8                WifiSetDefAP
                0x2804f4f0                mifReadBlock
                0x2804bb40                kbGetKeyMs
                0x2804e44c                NetSendto
                0x280508c0                PosixPipe
                0x2804d184                paraReadData
                0x2804e6fc                NetGetPrompt
                0x2804f3ec                mifPPPS
                0x28050e7c                PosixOpendir
                0x2804f020                WifiSetAP
                0x28051fb4                emv_contactless_active_picc
                0x2804ea18                WPhoneAnswer
                0x2805277c                prnWprintf
                0x2804f30c                mifSelect
                0x2805164c                PosixTcsetattr
                0x28050460                mifPLDecreTrans
                0x2804d9a0                portSends
                0x280519a8                modem_write
                0x2804d478                PedGetMac
                0x280521b0                mifPowerUpCard
                0x2804bf90                lcdStore
                0x280528b8                lcdWprintf
                0x28051c80                modem_get_dial_parms
                0x2804bdf0                lcdLight
                0x2804d2c0                PedGetRandom
                0x28050d08                PosixSymlink
                0x2805006c                mifPLAuthInAct
                0x2804ad34                sysPowerSave
                0x2804add4                accGetMotion
                0x28051394                PosixRecv
                0x28051f18                mif_close
                0x2804cf6c                fileToApp
                0x2804e8f4                WnetGetIMEI
                0x2804c5fc                prnStart
                0x2804d1d0                paraWriteData
                0x2804d86c                PedSetTdesIV
                0x2804fdb8                mifLEDControl
                0x28050798                PosixFtruncate
                0x2804b5d0                aes_cfb128_encrypt
                0x280512ac                PosixRecvfrom
                0x2804dcc0                sleCardRead
                0x28051848                PosixPoll
                0x2804b38c                md5
                0x2804d408                PedGetPin
                0x2805239c                DukptLoadInitKey
                0x2804a980                sysReadVer
                0x28052808                lcdWdisplay
                0x2804eb74                Stk_GetCurCmd
                0x28051a58                modem_read
                0x280506e4                PosixIoctlB
                0x2804c638                prnStatus
                0x2804edd4                Sms_Cmgr
                0x2804bd00                kbSetLightTime
                0x28051be8                modem_get_last_errno
                0x2804ed78                Sms_Cmgl
                0x2804c6dc                prnGetCurFont
                0x2804c95c                fileWrite
                0x2804abe4                sysTimerCheck
                0x2804a9bc                sysReadConfig
                0x2805082c                PosixDup
                0x28050c1c                PosixUtime
                0x280507e4                PosixFsync
                0x2804f2bc                mifAnticollion
                0x2804b348                md5_final
                0x2804d5d4                PedGetOffLinePlainPin
                0x2804e57c                NetSetsockopt
                0x2804f5d4                mifIncrement
                0x2804dba4                sleCardVerify
                0x2804d028                fileToAppData
                0x28050f24                PosixRewinddir
                0x28050d54                PosixUnlink
                0x2804ebbc                Stk_ListMenu
                0x2804d264                PedGetKeyInfo
                0x28050a80                PosixFchmod
                0x28051ff4                emv_contactless_obtain_status
                0x2804eefc                WifiScanAP
                0x2804dc84                sleCardLock
                0x28050b20                PosixFchown
                0x2804f3a0                mifRATS
                0x28051dac                modem_exit_auto_answer
                0x2804b0fc                sha_update
                0x2804bb04                kbGetKey
                0x28051918                modem_open
                0x28051c34                modem_set_dial_parms
                0x28050cbc                PosixLink
                0x28052648                lcdDisplay
                0x280505f0                PosixWrite
                0x2804b9bc                font_select
                0x2804ddb4                sleCardCheckData
                0x2804e64c                SockAddrset
                0x28051aac                modem_read_timeout
                0x2804c128                magClose
                0x2804cf18                fileToFont
                0x2804c098                lcdGetCurFont
                0x280509e8                PosixAccess
                0x2804e750                WnetInit
                0x2804ec08                Stk_Handle
                0x2804c2b8                iccPowerUp
                0x2804bf00                lcdDrLogo
                0x28050554                PosixClose
                0x2804fc20                InATR
                0x28050190                mifPLMultiWriteBlock
                0x2804f844                mifWriteULData
                0x2804f53c                mifWriteBlock
                0x2804f588                mifSetValue
                0x2804c674                prnSetFont
                0x2804f364                mifHaltA
                0x2804e1f4                NetBind
                0x2804aba4                sysTimerSet
                0x280503b0                mifPLDecrement
                0x2804ffec                mif_set_status
                0x28050300                mifPLSetValue
                0x2804e0c0                WnetSelectModule
                0x2804b3d8                aes_set_encrypt_key
                0x28051960                modem_close
                0x2804acc0                sysGetVolt
                0x2804bbbc                kbSound
                0x280511dc                PosixSetsockopt
                0x2804b964                font_list_lib
                0x2804e798                WnetGetInfo
                0x2804f22c                mifReqA
                0x2804dd14                sleCardWrite
                0x2805151c                PosixCfsetospeed
                0x2804b648                aes_cfb1_encrypt
                0x28051df4                modem_wait_until_sent
                0x2804e6a8                SockAddrget
                0x28050bc8                PosixFcntl
                0x280516e8                PosixTcflush
                0x2804b734                aes_cfbr_encrypt_block
                0x2804fecc                mif_read_register
                0x280513f0                PosixSend
                0x2804c5b0                prnLogo
                0x2804bcc0                kbLight
                0x28052514                portPrintf
                0x2804d698                PedWriteMasterKey
                0x28050d9c                PosixRename
                0x2804ac58                sysReset
                0x2804e1a0                NetSocket
                0x2804ce68                fileToKernel
                0x2804f7f8                mifReadULData
                0x2804acf8                sysAutoPowerSave
                0x280526f4                lcdPrintf
                0x28050404                mifPLIncreTrans
                0x2804fe84                mifCheckOnlyOneCard
                0x28050fb4                PosixChdir
                0x2804ec70                Ussd_Cmd
                0x2804c15c                magReset
                0x2804e2f4                NetListen
                0x280500b4                mifPLAuthInPro
                0x280514d4                PosixCfgetispeed
                0x2804ae68                sysGetPowerKeyStatus
                0x28050ffc                PosixFchdir
                0x2804e5e4                NetGetsockopt
                0x2804c780                prnEnBlackMark
                0x2804c4b8                prnSetGray
                0x2804aa70                sysBeef
                0x2804de04                at24cxxOpen
                0x2804def0                at24cxxClose
                0x2804c220                iccSetPara
                0x2804f9e4                mifAttriB
                0x2804a944                sysReadSN
                0x2804d830                PedRebuild
                0x2804f8dc                mifReqB
                0x2805189c                PosixSelect
                0x280501e4                mifPLMultiReadBlock
                0x2804aea0                sysClipboardRead
                0x2804ba80                font_set_trans_func
                0x2804e028                NetGetTCPIPCfg
                0x28051044                PosixSocket
                0x2804f178                mifClose
                0x2804beb4                lcdStipple
                0x2804e870                WnetCheckSim
                0x2804d558                PedGetMacDukpt
                0x28050acc                PosixChown
                0x28051f60                mif_ioctl
                0x2804b25c                RSAPrivateEncrypt
                0x2804c810                fileOpen
                0x2804eeb4                WifiGetCurConnect
                0x2804c030                lcdSetFont
                0x28051734                PosixTcflow
                0x2804c9b0                fileTruncate
                0x2804c574                prnTemperature
                0x2804bd3c                kbSetSlipFW
                0x2804da48                portReset
                0x2804fd1c                mifExchangeData
                0x2804b564                aes_cbc_encrypt
                0x2804f1ec                mifResetRF
                0x2804c7c4                prnBlackMarkStep
                0x2804c3fc                prnInit
                0x2804ae24                sysSetPowerKey
                0x2804ff18                mif_write_register
                0x2804e9cc                WPhoneStatusEx
                0x2804cb10                fileExist
                0x2804e93c                WnetDnsResolve
                0x2804d09c                appDelete
                0x2804cfc8                fileToDSRM
                0x28051d18                modem_set_sdlc_parms
                0x2804aa00                sysGetLastError
                0x280519fc                modem_write_timeout
                0x28051188                PosixAccept
                0x28051600                PosixTcgetattr
                0x2805074c                PosixTruncate
                0x28051fd4                emv_contactless_deactive_picc
                0x2804fd84                InRelease
                0x2804d130                GetPubKeyFileHash
                0x2804ef48                WifiGetLocalIP
                0x28051320                PosixSendto
                0x2804fcc0                InDataExchange
                0x2804fb4c                mifFeliCaExchange
                0x2804aab0                sysSetTime
                0x280517c0                PosixGeterrno
                0x2804e990                WPhoneStatus
                0x28050950                PosixLstat
                0x2804e828                WnetSignal
                0x2804f750                mifWriteE2
                0x28051e84                modem_exec_at_command
                0x2804bdac                lcdClrLine
                0x2804c4f8                prnGetCurLine
                0x28051ccc                modem_get_sdlc_parms
                0x2804d388                PedWriteMacKey
                0x2804ece4                Sms_GetCSCA
                0x2804b0bc                sha_init
                0x280515b4                PosixCfsetspeed
                0x2804ef90                WifiSetParms
                0x2804fc6c                InPSL
                0x2804bb88                kbFlush
                0x2805099c                PosixFstat
                0x2804c1cc                magRead
                0x2805029c                mifPLReadBlock
                0x2804afd4                sysExit
                0x2804ea54                WPhoneHangUp
                0x2804db20                sleCardPowerUp
                0x2804b884                aes_ige_encrypt
                0x280510e8                PosixBind
                0x28051094                PosixConnect
                0x2804aaf4                sysGetTime
                0x2804e108                Wnet_SetDnsServer
                0x28050de8                PosixMkdir
                0x2804b148                sha_final
                0x2804c9fc                fileClose
                0x2804b1f4                RSAPublicDecrypt
                0x2804bfe4                lcdRestore
                0x2804cbf4                fileSizeExt
                0x2804d0ec                GetKernelFileHash
                0x2804ea90                WPhoneCall
                0x2804f1ac                mifSelectMifType
                0x2804cdec                appRun
                0x28050698                PosixIoctlA
                0x28051568                PosixCfsetispeed
                0x2804cd58                appReadInfo
                0x2804b47c                aes_encrypt
 .text          0x28052940      0x8c8 ../SDK/lib/libemv.a(emv_core_func.o)
                0x28052fd4                emv_get_log_data
                0x280529a0                emv_set_send_log_command_flag
                0x28052ea4                emv_get_cda_data
                0x28053080                emv_set_language_prefer
                0x28052aa0                emv_get_online_result
                0x28052b6c                emv_init_script_result
                0x28052a14                emv_get_callback_func
                0x280529c0                emv_set_online_flag
                0x28052ff4                emv_append_log_data
                0x28052a50                emv_set_signature_flag
                0x28052940                emv_set_issuer_code_table_index_flag
                0x28052960                emv_set_issuer_code_table_index
                0x28052a90                emv_set_online_result
                0x28052980                emv_set_prefer_name_flag
                0x280529fc                emv_get_current_application
                0x28052ef4                emv_get_script_result
                0x28052950                emv_check_issuer_code_table_index_flag
                0x28052b4c                emv_init_cda_data
                0x28052a70                emv_set_cda_flag
                0x280529e0                emv_set_current_application
                0x28052f74                emv_append_script_result
                0x28052a60                emv_check_signature
                0x28052ac0                emv_check_advice_flag
                0x28052ae0                emv_check_force_accept
                0x280529d0                emv_check_online_flag
                0x28052ec4                emv_append_cda_data
                0x28052970                emv_get_issuer_code_table_index
                0x28052af0                emv_init_callback_func
                0x28052b90                emv_init_log_data
                0x280530dc                emv_set_core_init_parameter
                0x28052990                emv_check_prefer_name_flag
                0x280529b0                emv_check_send_log_command_flag
                0x28052ad0                emv_set_force_accept_flag
                0x28052ab0                emv_set_advice_flag
                0x28052e80                emv_get_log_entry
                0x28052bb4                emv_get_core_init_parameter
                0x28053054                emv_get_language_prefer
                0x28052a80                emv_check_cda_flag
                0x28052e90                emv_set_log_entry
 .text          0x28053208      0x424 ../SDK/lib/libemv.a(emvaidlist.o)
                0x2805329c                emv_check_aid_in_terminal
                0x28053208                emv_get_aid_info_num
                0x280533ac                emv_del_one_aid_info
                0x28053218                emv_get_one_aid_info
                0x280535d0                emv_delete_all_terminal_aids
                0x280534a0                emv_add_one_aid_info
 .text          0x2805362c     0x3a14 ../SDK/lib/libemv.a(emvappselect.o)
                0x28053a04                emv_check_adf_fci
                0x28056ad4                emv_application_select_no_gpo
                0x28056d30                emv_application_select
                0x2805362c                emv_get_log_item
                0x2805383c                emv_read_log_record
 .text          0x28057040      0x7ec ../SDK/lib/libemv.a(emvcandapp.o)
                0x2805707c                emv_get_candapp_num
                0x2805708c                emv_sort_candapps
                0x28057378                emv_add_one_candapp
                0x28057040                emv_get_one_candapp
                0x280572b4                emv_init_candapp_lists
                0x28057218                emv_get_all_candapps
                0x2805758c                emv_delete_one_candapp
 .text          0x2805782c      0x5c0 ../SDK/lib/libemv.a(emvcapk.o)
                0x28057a60                emv_delete_all_ca_public_keys
                0x2805782c                emv_get_ca_public_key_num
                0x28057994                emv_get_one_ca_public_key
                0x280578c0                emv_delete_one_ca_public_key
                0x2805783c                emv_get_one_ca_public_key_by_no
                0x28057abc                emv_add_one_ca_public_key
 .text          0x28057dec      0xcdc ../SDK/lib/libemv.a(emvcomplete.o)
                0x280586cc                emv_online_transaction
                0x28057dec                emv_terminal_action_analysis
 .text          0x28058ac8      0x174 ../SDK/lib/libemv.a(emvconfigure.o)
                0x28058ad8                emv_get_kernel_type
                0x28058b18                emv_pboc_check_ec
                0x28058af8                emv_pboc_set_ec_ttl
                0x28058ae8                emv_pboc_ec_enable
                0x28058b28                emv_get_mck_configure
                0x28058b80                emv_set_mck_configure
                0x28058b08                emv_pboc_get_ec_ttl
                0x28058ac8                emv_set_kernel_type
 .text          0x28058c3c      0xdf4 ../SDK/lib/libemv.a(emvcvm.o)
                0x28058c3c                emv_cardholder_verify
 .text          0x28059a30      0x2b4 ../SDK/lib/libemv.a(emvddflist.o)
                0x28059c54                emv_add_one_ddf
                0x28059a40                emv_delete_last_ddf_list
                0x28059a9c                emv_init_ddf_lists
                0x28059bc8                emv_get_last_ddf
                0x28059a30                emv_get_ddf_num
                0x28059b00                emv_add_one_ddf_record_no
 .text          0x28059ce4      0x478 ../SDK/lib/libemv.a(emvdol.o)
                0x28059ce4                emv_check_tag_in_dol
                0x28059e0c                emv_dol_padding
 .text          0x2805a15c     0x202c ../SDK/lib/libemv.a(emvdte.o)
                0x2805ad98                emv_set_data_element
                0x2805b080                emv_set_tsi_bit
                0x2805a5dc                emv_del_all_icc_data_element
                0x2805a160                emv_init_mc_data_element
                0x2805b3a8                emv_init_data_element
                0x2805ac88                emv_check_data_element
                0x2805a9d0                emv_get_data_element_type
                0x2805a698                emv_init_pboc_data_element
                0x2805a164                emv_init_jcb_data_element
                0x2805ab80                emv_del_data_element
                0x2805b2f8                emv_get_tvr_bit
                0x2805a15c                emv_init_visa_data_element
                0x2805a16c                emv_check_data_element_in_template
                0x2805b164                emv_get_tsi_bit
                0x2805aaa8                emv_get_data_element_attr
                0x2805af20                emv_get_data_element
                0x2805b208                emv_set_tvr_bit
                0x2805a8b0                emv_check_data_element_len_valid
                0x2805a168                emv_init_amex_data_element
 .text          0x2805c188     0x1518 ../SDK/lib/libemv.a(emvicc.o)
                0x2805c188                emv_get_last_iccard_sw
                0x2805c33c                emv_iccard_process_script
                0x2805c1a0                emv_exchange_apdu
                0x2805c42c                emv_iccard_verify_offline_encrypt_pin
                0x2805d3b8                emv_iccard_gpo
                0x2805d0c4                emv_iccard_get_ec_balance_limit
                0x2805cd84                emv_iccard_get_challenge
                0x2805cea8                emv_iccard_get_data
                0x2805cc80                emv_iccard_external_authenticate
                0x2805c1f0                emv_iccard_select
                0x2805cfc8                emv_iccard_get_ec_single_limit
                0x2805d1c0                emv_iccard_get_ec_reset_threshold
                0x2805d578                emv_iccard_read_record
                0x2805c9dc                emv_iccard_internal_authenticate
                0x2805cb2c                emv_iccard_gac
                0x2805d2bc                emv_iccard_get_ec_balance
                0x2805c740                emv_iccard_verify_offline_plain_pin
 .text          0x2805d6a0     0x20b0 ../SDK/lib/libemv.a(emvoda.o)
                0x2805ef98                emv_cda_first_step
                0x2805f4c0                emv_sda
                0x2805da04                emv_verify_dynimal_ssad
                0x2805dda4                emv_verify_icc_publickey_certificate
                0x2805f0cc                emv_dda
                0x2805d6a0                emv_cda_complete
                0x2805e574                emv_verify_ssad
                0x2805e864                emv_verify_issuer_publickey_certificate
                0x2805f604                emv_offline_data_authentication
 .text          0x2805f750      0x1a0 ../SDK/lib/libemv.a(emvodalist.o)
                0x2805f750                emv_get_odalist_num
                0x2805f760                emv_get_odalist_sfi
                0x2805f7b4                emv_get_odalist
                0x2805f820                emv_add_one_odalist
                0x2805f8b0                emv_init_oda_list
 .text          0x2805f8f0      0xe74 ../SDK/lib/libemv.a(emvpinverify.o)
                0x2805fd24                emv_verify_pin_publickey_certificate
                0x2805f8f0                emv_check_online_encrypted_pin
                0x2805f9b0                emv_get_pin_try_count
                0x280603d8                emv_check_offline_encrypted_pin
                0x2805fa7c                emv_check_offline_plaintext_pin
                0x2806037c                emv_get_pin_publickey
 .text          0x28060764      0x40c ../SDK/lib/libemv.a(emvprocrest.o)
                0x28060764                emv_process_restriction
 .text          0x28060b70      0x4b4 ../SDK/lib/libemv.a(emvpubfunc.o)
                0x28060cd0                emv_binarytohex
                0x28060b70                emv_one_to_two
                0x28060f38                emv_hextobinary
                0x28060c24                emv_char_to_long
                0x28060bbc                emv_bcd_to_long
                0x28060d84                emv_long_to_bcd
                0x28060c60                emv_long_to_char
                0x28060c8c                emv_hextonum
                0x28060e0c                emv_check_date_validity
                0x28060d20                emv_get_random_bytes
 .text          0x28061024      0x3c4 ../SDK/lib/libemv.a(emvreadappdata.o)
                0x28061024                emv_read_app_data
 .text          0x280613e8     0x114c ../SDK/lib/libemv.a(emvtac.o)
                0x28061a5c                emv_generate_ac
                0x280613e8                emv_extract_sdad
                0x280616dc                emv_check_action_online
                0x280615b0                emv_check_action_default
                0x28061968                emv_change_ec_balance
                0x28061848                emv_check_action_denial
 .text          0x28062534      0x890 ../SDK/lib/libemv.a(emvtermrisk.o)
                0x28062534                emv_terminal_risk_manage
 .text          0x28062dc4     0x1328 ../SDK/lib/libemv.a(emvtlv.o)
                0x28062dc4                emv_get_len
                0x280635d8                emv_get_data_element_from_77
                0x28062f88                emv_search_tag
                0x2806343c                emv_get_tag_info
                0x28063150                emv_check_data_element_duplicate
                0x28063928                emv_get_data_element_from_bf0c
                0x28063d44                emv_save_tlv
                0x28062e60                emv_get_tag
                0x28063ad0                emv_save_tlv_sub
                0x28063f48                emv_check_tlv
                0x28063780                emv_get_data_element_from_73
 .text          0x280640ec     0x13cc ../SDK/lib/libemv.a(qpbocapi.o)
                0x28064150                emv_qpboc_select_no_gpo
                0x28064124                emv_qpboc_need_save_failed_log
                0x280641c8                emv_qpboc_complete
                0x2806432c                emv_qpboc_get_parameter
                0x280640ec                emv_qpboc_signature_needed
                0x2806410c                emv_qpboc_get_app_type
                0x28064460                emv_qpboc_read_data
                0x28064360                emv_qpboc_pre_transaction
                0x28064348                emv_qpboc_set_parameter
 .text          0x280654b8      0x164 ../SDK/lib/libemv.a(EmvRsa.o)
                0x280654b8                RSA_Calculate
                0x28065564                RSA_CalculateEx
 .text          0x2806561c     0x1afc ../SDK/lib/libemv.a(EmvSHA1.o)
                0x28067020                EMV_SHA1_Init
                0x28066dc8                EMV_SHA1_Update
                0x28066eb8                EMV_SHA1_Fina
                0x28067080                EMV_SHA1_Calc
 .text          0x28067118     0x18dc ../SDK/lib/libemv.a(qpboc_funcs.o)
                0x280674d8                emv_qpboc_require_online_pin
                0x28067e58                DisplayApps
                0x28067718                emv_qpboc_save_tlv
                0x28067430                emv_pboc_check_exception_File
                0x28067128                emv_qpboc_set_faield_log_save_flag
                0x28067f9c                emv_qpboc_readrecord
                0x28067138                emv_qpboc_check_application_expired
                0x28067530                emv_qpboc_online_trans
                0x2806841c                emv_qpboc_build_candidatelist
                0x28067e94                emv_qpboc_dda
                0x280671fc                emv_pboc_check_expired
                0x280677c0                emv_qpboc_gpo
                0x28067a88                emv_qpboc_select
                0x280672f4                emv_fDDA
                0x28067118                emv_qpboc_check_failed_log_save_flag
 .text          0x280689f4       0x7c ../SDK/lib/libcrypto.a(perror.o)
                0x28068a08                SYS_PERROR
                0x280689f4                __errno_location
                0x28068a00                SYS_STRERROR
 .text          0x28068a70       0x70 ../SDK/lib/libcrypto.a(sha1_one.o)
                0x28068a70                SHA1
 .text          0x28068ae0     0x3618 ../SDK/lib/libcrypto.a(sha1dgst.o)
                0x2806bd50                SHA1_Transform
                0x2806a2a4                sha1_block_data_order
                0x28068ae0                SHA1_Init
                0x2806bd58                SHA1_Update
                0x2806a094                SHA1_Final
                0x28068b30                sha1_block_host_order
 .text          0x2806c0f8       0x80 ../SDK/lib/libcrypto.a(fprintf.o)
                0x2806c0f8                SYS_FPRINTF
 .text          0x2806c178       0x64 ../SDK/lib/libcrypto.a(write.o)
                0x2806c178                SYS_WRITE
 .text          0x2806c1dc      0x310 ../SDK/lib/libcrypto.a(console.o)
                0x2806c22c                WriteConsole
                0x2806c2c8                ReadConsole
                0x2806c350                console_init
                0x2806c46c                Printf
 .text          0x2806c4ec       0x60 ../SDK/lib/libcrypto.a(mem_clr.o)
                0x2806c4ec                OPENSSL_cleanse
 .text          0x2806c54c      0x338 ../SDK/lib/libcrypto.a(fopen.o)
                0x2806c5e0                __PutOpenFD
                0x2806c584                __GetOpenRefCnt
                0x2806c5bc                __GetOpenName
                0x2806c6c4                SYS_FOPEN
                0x2806c848                __SetOpenErr
                0x2806c654                __GetOpenFD
                0x2806c594                __GetOpenErr
                0x2806c54c                LocateConsole
 .text          0x2806c884       0xd4 ../SDK/lib/libcrypto.a(open.o)
                0x2806c884                SYS_OPEN
 .text          0x2806c958      0x58c ../SDK/lib/liballoc.a(memmgr.o)
                0x2806cc6c                _free
                0x2806cd60                _FreeProcessMem
                0x2806cdd0                _calloc
                0x2806cca4                _MemLargest
                0x2806ce00                _realloc
                0x2806c9fc                _malloc
                0x2806cb50                _mallocalign
                0x2806c9c0                _HeapInit
                0x2806cd18                _MemCheck
 .text          0x2806cee4      0xb5c ../SDK/lib/libftp.a(ftp.o)
                0x2806d058                ftp_cmd
                0x2806d6d4                ftp_put
                0x2806d80c                ftp_get
                0x2806d014                ftp_logout
                0x2806d5e8                ftp_ls
                0x2806d308                ftp_size
                0x2806d394                ftp_login
 .text          0x2806da40       0xa4 ../SDK/lib/libftp.a(net.o)
                0x2806daa8                Send
                0x2806dabc                Connect
                0x2806da74                Getsockopt
                0x2806da54                Setsockopt
                0x2806da40                Shutdown
                0x2806dad0                Socket
                0x2806da94                Recv
 .text          0x2806dae4      0x110 /cygdrive/c/ArmToolchain/bin/../lib/gcc/arm-linux-uclibc/4.1.2/libgcc.a(_udivsi3.o)
                0x2806dae4                __udivsi3
                0x2806dae4                __aeabi_uidiv
                0x2806dbdc                __aeabi_uidivmod
 .text          0x2806dbf4      0x140 /cygdrive/c/ArmToolchain/bin/../lib/gcc/arm-linux-uclibc/4.1.2/libgcc.a(_divsi3.o)
                0x2806dbf4                __aeabi_idiv
                0x2806dbf4                __divsi3
                0x2806dd1c                __aeabi_idivmod
 .text          0x2806dd34       0xcc /cygdrive/c/ArmToolchain/bin/../lib/gcc/arm-linux-uclibc/4.1.2/libgcc.a(_umodsi3.o)
                0x2806dd34                __umodsi3
 .text          0x2806de00       0xe4 /cygdrive/c/ArmToolchain/bin/../lib/gcc/arm-linux-uclibc/4.1.2/libgcc.a(_modsi3.o)
                0x2806de00                __modsi3
 .text          0x2806dee4       0x10 /cygdrive/c/ArmToolchain/bin/../lib/gcc/arm-linux-uclibc/4.1.2/libgcc.a(_dvmd_lnx.o)
                0x2806dee4                __div0
 .text          0x2806def4      0x56c /cygdrive/c/ArmToolchain/bin/../lib/gcc/arm-linux-uclibc/4.1.2/libgcc.a(_divdi3.o)
                0x2806def4                __divdi3
 .text          0x2806e460        0x0 /cygdrive/c/ArmToolchain/bin/../lib/gcc/arm-linux-uclibc/4.1.2/libgcc.a(_clz.o)
 .text          0x2806e460       0x34 /cygdrive/c/ArmToolchain/arm-linux-uclibc/bin/../../lib/libc.a(tolower.os)
                0x2806e460                __GI_tolower
                0x2806e460                tolower
 .text          0x2806e494       0x34 /cygdrive/c/ArmToolchain/arm-linux-uclibc/bin/../../lib/libc.a(toupper.os)
                0x2806e494                __GI_toupper
                0x2806e494                toupper
 .text          0x2806e4c8        0x0 /cygdrive/c/ArmToolchain/arm-linux-uclibc/bin/../../lib/libc.a(__C_ctype_b.os)
 .text          0x2806e4c8        0x0 /cygdrive/c/ArmToolchain/arm-linux-uclibc/bin/../../lib/libc.a(__C_ctype_tolower.os)
 .text          0x2806e4c8        0x0 /cygdrive/c/ArmToolchain/arm-linux-uclibc/bin/../../lib/libc.a(__C_ctype_toupper.os)
 .text          0x2806e4c8       0x4c /cygdrive/c/ArmToolchain/arm-linux-uclibc/bin/../../lib/libc.a(printf.os)
                0x2806e4c8                printf
                0x2806e4c8                __GI_printf
 .text          0x2806e514       0x10 /cygdrive/c/ArmToolchain/arm-linux-uclibc/bin/../../lib/libc.a(vsprintf.os)
                0x2806e514                vsprintf
 .text          0x2806e524       0x30 /cygdrive/c/ArmToolchain/arm-linux-uclibc/bin/../../lib/libc.a(snprintf.os)
                0x2806e524                __GI_snprintf
                0x2806e524                snprintf
 .text          0x2806e554       0x34 /cygdrive/c/ArmToolchain/arm-linux-uclibc/bin/../../lib/libc.a(sprintf.os)
                0x2806e554                sprintf
                0x2806e554                __GI_sprintf
 .text          0x2806e588       0xc4 /cygdrive/c/ArmToolchain/arm-linux-uclibc/bin/../../lib/libc.a(vsnprintf.os)
                0x2806e588                __GI_vsnprintf
                0x2806e588                vsnprintf
 .text          0x2806e64c      0x174 /cygdrive/c/ArmToolchain/arm-linux-uclibc/bin/../../lib/libc.a(_stdio.os)
                0x2806e6ac                __stdio_init_mutex
                0x2806e6d4                _stdio_term
                0x2806e64c                _stdio_init
 .text          0x2806e7c0       0x30 /cygdrive/c/ArmToolchain/arm-linux-uclibc/bin/../../lib/libc.a(_wcommit.os)
                0x2806e7c0                __stdio_wcommit
 .text          0x2806e7f0       0x48 /cygdrive/c/ArmToolchain/arm-linux-uclibc/bin/../../lib/libc.a(_cs_funcs.os)
                0x2806e7f0                _cs_close
                0x2806e7f8                _cs_seek
                0x2806e830                _cs_read
                0x2806e828                _cs_write
 .text          0x2806e838      0x7f8 /cygdrive/c/ArmToolchain/arm-linux-uclibc/bin/../../lib/libc.a(vfprintf.os)
                0x2806e908                __GI_vfprintf
                0x2806e908                vfprintf
 .text          0x2806f030       0x98 /cygdrive/c/ArmToolchain/arm-linux-uclibc/bin/../../lib/libc.a(_ppfs_init.os)
                0x2806f030                _ppfs_init
 .text          0x2806f0c8       0x38 /cygdrive/c/ArmToolchain/arm-linux-uclibc/bin/../../lib/libc.a(_ppfs_prepargs.os)
                0x2806f0c8                _ppfs_prepargs
 .text          0x2806f100      0x19c /cygdrive/c/ArmToolchain/arm-linux-uclibc/bin/../../lib/libc.a(_ppfs_setargs.os)
                0x2806f100                _ppfs_setargs
 .text          0x2806f29c      0x5a0 /cygdrive/c/ArmToolchain/arm-linux-uclibc/bin/../../lib/libc.a(_ppfs_parsespec.os)
                0x2806f2f8                _ppfs_parsespec
 .text          0x2806f83c       0xe0 /cygdrive/c/ArmToolchain/arm-linux-uclibc/bin/../../lib/libc.a(vswprintf.os)
                0x2806f83c                vswprintf
                0x2806f83c                __GI_vswprintf
 .text          0x2806f91c      0x8c8 /cygdrive/c/ArmToolchain/arm-linux-uclibc/bin/../../lib/libc.a(vfwprintf.os)
                0x2806f968                __GI_vfwprintf
                0x2806f968                vfwprintf
 .text          0x280701e4       0x9c /cygdrive/c/ArmToolchain/arm-linux-uclibc/bin/../../lib/libc.a(fputws.os)
                0x280701e4                __GI_fputws
                0x280701e4                fputws
 .text          0x28070280       0x34 /cygdrive/c/ArmToolchain/arm-linux-uclibc/bin/../../lib/libc.a(fputs_unlocked.os)
                0x28070280                __GI_fputs_unlocked
                0x28070280                fputs_unlocked
 .text          0x280702b4       0xa4 /cygdrive/c/ArmToolchain/arm-linux-uclibc/bin/../../lib/libc.a(fwrite_unlocked.os)
                0x280702b4                __GI_fwrite_unlocked
                0x280702b4                fwrite_unlocked
 .text          0x28070358       0x34 /cygdrive/c/ArmToolchain/arm-linux-uclibc/bin/../../lib/libc.a(fputws_unlocked.os)
                0x28070358                __GI_fputws_unlocked
                0x28070358                fputws_unlocked
 *fill*         0x2807038c        0x4 00000000
 .text          0x28070390       0x30 /cygdrive/c/ArmToolchain/arm-linux-uclibc/bin/../../lib/libc.a(memcmp.os)
                0x28070390                __GI_memcmp
                0x28070390                memcmp
 .text          0x280703c0       0x10 /cygdrive/c/ArmToolchain/arm-linux-uclibc/bin/../../lib/libc.a(memcpy.os)
                0x280703c0                memcpy
                0x280703c0                __GI_memcpy
 .text          0x280703d0       0x10 /cygdrive/c/ArmToolchain/arm-linux-uclibc/bin/../../lib/libc.a(memmove.os)
                0x280703d0                memmove
                0x280703d0                __GI_memmove
 .text          0x280703e0       0xa0 /cygdrive/c/ArmToolchain/arm-linux-uclibc/bin/../../lib/libc.a(memset.os)
                0x280703e0                __GI_memset
                0x280703e0                memset
 .text          0x28070480       0x20 /cygdrive/c/ArmToolchain/arm-linux-uclibc/bin/../../lib/libc.a(strcmp.os)
                0x28070480                __GI_strcoll
                0x28070480                __GI_strcmp
                0x28070480                strcoll
                0x28070480                strcmp
 .text          0x280704a0       0x60 /cygdrive/c/ArmToolchain/arm-linux-uclibc/bin/../../lib/libc.a(strlen.os)
                0x280704a0                strlen
                0x280704a0                __GI_strlen
 .text          0x28070500       0xfc /cygdrive/c/ArmToolchain/arm-linux-uclibc/bin/../../lib/libc.a(memchr.os)
                0x28070500                __GI_memchr
                0x28070500                memchr
 .text          0x280705fc       0x28 /cygdrive/c/ArmToolchain/arm-linux-uclibc/bin/../../lib/libc.a(strcat.os)
                0x280705fc                strcat
                0x280705fc                __GI_strcat
 .text          0x28070624      0x108 /cygdrive/c/ArmToolchain/arm-linux-uclibc/bin/../../lib/libc.a(strchr.os)
                0x28070624                __GI_strchr
                0x28070624                strchr
 .text          0x2807072c       0x1c /cygdrive/c/ArmToolchain/arm-linux-uclibc/bin/../../lib/libc.a(strcpy.os)
                0x2807072c                strcpy
                0x2807072c                __GI_strcpy
 .text          0x28070748       0xbc /cygdrive/c/ArmToolchain/arm-linux-uclibc/bin/../../lib/libc.a(strncpy.os)
                0x28070748                strncpy
                0x28070748                __GI_strncpy
 .text          0x28070804       0xe0 /cygdrive/c/ArmToolchain/arm-linux-uclibc/bin/../../lib/libc.a(strnlen.os)
                0x28070804                strnlen
                0x28070804                __GI_strnlen
 .text          0x280708e4       0x44 /cygdrive/c/ArmToolchain/arm-linux-uclibc/bin/../../lib/libc.a(strrchr.os)
                0x280708e4                strrchr
                0x280708e4                __GI_strrchr
 .text          0x28070928       0xf4 /cygdrive/c/ArmToolchain/arm-linux-uclibc/bin/../../lib/libc.a(strstr.os)
                0x28070928                strstr
                0x28070928                __GI_strstr
 .text          0x28070a1c       0x14 /cygdrive/c/ArmToolchain/arm-linux-uclibc/bin/../../lib/libc.a(__glibc_strerror_r.os)
                0x28070a1c                __GI___glibc_strerror_r
                0x28070a1c                __glibc_strerror_r
 .text          0x28070a30       0xf8 /cygdrive/c/ArmToolchain/arm-linux-uclibc/bin/../../lib/libc.a(__xpg_strerror_r.os)
                0x28070a30                __xpg_strerror_r
                0x28070a30                __GI___xpg_strerror_r
 .text          0x28070b28        0x0 /cygdrive/c/ArmToolchain/arm-linux-uclibc/bin/../../lib/libc.a(_string_syserrmsgs.os)
 .text          0x28070b28       0x24 /cygdrive/c/ArmToolchain/arm-linux-uclibc/bin/../../lib/libc.a(wcslen.os)
                0x28070b28                wcslen
                0x28070b28                __GI_wcslen
 .text          0x28070b4c       0x30 /cygdrive/c/ArmToolchain/arm-linux-uclibc/bin/../../lib/libc.a(wcsnlen.os)
                0x28070b4c                wcsnlen
                0x28070b4c                __GI_wcsnlen
 .text          0x28070b7c       0x20 /cygdrive/c/ArmToolchain/arm-linux-uclibc/bin/../../lib/libc.a(isatty.os)
                0x28070b7c                isatty
                0x28070b7c                __GI_isatty
 .text          0x28070b9c       0x74 /cygdrive/c/ArmToolchain/arm-linux-uclibc/bin/../../lib/libc.a(tcgetattr.os)
                0x28070b9c                __GI_tcgetattr
                0x28070b9c                tcgetattr
 .text          0x28070c10      0x284 /cygdrive/c/ArmToolchain/arm-linux-uclibc/bin/../../lib/libc.a(ntop.os)
                0x28070c10                inet_pton
                0x28070cfc                __GI_inet_ntop
                0x28070c10                __GI_inet_pton
                0x28070cfc                inet_ntop
 .text          0x28070e94       0x24 /cygdrive/c/ArmToolchain/arm-linux-uclibc/bin/../../lib/libc.a(inet_makeaddr.os)
                0x28070e94                inet_addr
                0x28070e94                __GI_inet_addr
 .text          0x28070eb8       0x18 /cygdrive/c/ArmToolchain/arm-linux-uclibc/bin/../../lib/libc.a(raise.os)
                0x28070eb8                __raise
                0x28070eb8                __GI_raise
                0x28070eb8                raise
 .text          0x28070ed0        0xc /cygdrive/c/ArmToolchain/arm-linux-uclibc/bin/../../lib/libc.a(atol.os)
                0x28070ed0                atol
                0x28070ed0                __GI_atol
                0x28070ed0                atoi
                0x28070ed0                __GI_atoi
 .text          0x28070edc        0x8 /cygdrive/c/ArmToolchain/arm-linux-uclibc/bin/../../lib/libc.a(strtol.os)
                0x28070edc                strtol
                0x28070edc                __GI_strtol
 .text          0x28070ee4      0x1b8 /cygdrive/c/ArmToolchain/arm-linux-uclibc/bin/../../lib/libc.a(_stdlib_strto_l.os)
                0x28070ee4                _stdlib_strto_l
 .text          0x2807109c       0x2c /cygdrive/c/ArmToolchain/arm-linux-uclibc/bin/../../lib/libc.a(close.os)
                0x2807109c                __GI_close
                0x2807109c                __libc_close
                0x2807109c                close
 .text          0x280710c8       0x2c /cygdrive/c/ArmToolchain/arm-linux-uclibc/bin/../../lib/libc.a(getpid.os)
                0x280710c8                getpid
                0x280710c8                __libc_getpid
                0x280710c8                __GI_getpid
 .text          0x280710f4       0x50 /cygdrive/c/ArmToolchain/arm-linux-uclibc/bin/../../lib/libc.a(ioctl.os)
                0x280710f4                ioctl
                0x280710f4                __GI_ioctl
 .text          0x28071144       0x2c /cygdrive/c/ArmToolchain/arm-linux-uclibc/bin/../../lib/libc.a(kill.os)
                0x28071144                kill
                0x28071144                __GI_kill
 .text          0x28071170       0x64 /cygdrive/c/ArmToolchain/arm-linux-uclibc/bin/../../lib/libc.a(llseek.os)
                0x28071170                __GI_lseek64
                0x28071170                __libc_lseek64
                0x28071170                lseek64
 .text          0x280711d4       0x2c /cygdrive/c/ArmToolchain/arm-linux-uclibc/bin/../../lib/libc.a(read.os)
                0x280711d4                __GI_read
                0x280711d4                __libc_read
                0x280711d4                read
 .text          0x28071200       0x2c /cygdrive/c/ArmToolchain/arm-linux-uclibc/bin/../../lib/libc.a(write.os)
                0x28071200                __GI_write
                0x28071200                write
                0x28071200                __libc_write
 .text          0x2807122c        0xc /cygdrive/c/ArmToolchain/arm-linux-uclibc/bin/../../lib/libc.a(btowc.os)
                0x2807122c                __GI_btowc
                0x2807122c                btowc
 .text          0x28071238       0x50 /cygdrive/c/ArmToolchain/arm-linux-uclibc/bin/../../lib/libc.a(wcrtomb.os)
                0x28071238                __GI_wcrtomb
                0x28071238                wcrtomb
 .text          0x28071288       0x3c /cygdrive/c/ArmToolchain/arm-linux-uclibc/bin/../../lib/libc.a(mbsrtowcs.os)
                0x28071288                __GI_mbsrtowcs
                0x28071288                mbsrtowcs
 .text          0x280712c4       0x20 /cygdrive/c/ArmToolchain/arm-linux-uclibc/bin/../../lib/libc.a(wcsrtombs.os)
                0x280712c4                __GI_wcsrtombs
                0x280712c4                wcsrtombs
 .text          0x280712e4       0xd8 /cygdrive/c/ArmToolchain/arm-linux-uclibc/bin/../../lib/libc.a(mbsnrtowcs.os)
                0x280712e4                mbsnrtowcs
                0x280712e4                __GI_mbsnrtowcs
 .text          0x280713bc       0xbc /cygdrive/c/ArmToolchain/arm-linux-uclibc/bin/../../lib/libc.a(wcsnrtombs.os)
                0x280713bc                __GI_wcsnrtombs
                0x280713bc                wcsnrtombs
 .text          0x28071478       0xc4 /cygdrive/c/ArmToolchain/arm-linux-uclibc/bin/../../lib/libc.a(_WRITE.os)
                0x28071478                __stdio_WRITE
 .text          0x2807153c      0x134 /cygdrive/c/ArmToolchain/arm-linux-uclibc/bin/../../lib/libc.a(_fwrite.os)
                0x2807153c                __stdio_fwrite
 .text          0x28071670       0xd0 /cygdrive/c/ArmToolchain/arm-linux-uclibc/bin/../../lib/libc.a(_trans2w.os)
                0x28071670                __stdio_trans2w_o
 .text          0x28071740       0x70 /cygdrive/c/ArmToolchain/arm-linux-uclibc/bin/../../lib/libc.a(_load_inttype.os)
                0x28071740                _load_inttype
 .text          0x280717b0       0x2c /cygdrive/c/ArmToolchain/arm-linux-uclibc/bin/../../lib/libc.a(_store_inttype.os)
                0x280717b0                _store_inttype
 .text          0x280717dc      0x15c /cygdrive/c/ArmToolchain/arm-linux-uclibc/bin/../../lib/libc.a(_uintmaxtostr.os)
                0x280717dc                _uintmaxtostr
 .text          0x28071938      0xa18 /cygdrive/c/ArmToolchain/arm-linux-uclibc/bin/../../lib/libc.a(_fpmaxtostr.os)
                0x28071938                _fpmaxtostr
 .text          0x28072350      0x110 /cygdrive/c/ArmToolchain/arm-linux-uclibc/bin/../../lib/libc.a(_wfwrite.os)
                0x28072350                _wstdio_fwrite
 .text          0x28072460      0x490 /cygdrive/c/ArmToolchain/arm-linux-uclibc/bin/../../lib/libc.a(_memcpy.os)
                0x28072460                _memcpy
 .text          0x280728f0       0x18 /cygdrive/c/ArmToolchain/arm-linux-uclibc/bin/../../lib/libc.a(mempcpy.os)
                0x280728f0                mempcpy
                0x280728f0                __GI_mempcpy
 .text          0x28072908       0xec /cygdrive/c/ArmToolchain/arm-linux-uclibc/bin/../../lib/libc.a(memrchr.os)
                0x28072908                memrchr
                0x28072908                __GI_memrchr
 .text          0x280729f4       0x20 /cygdrive/c/ArmToolchain/arm-linux-uclibc/bin/../../lib/libc.a(wmemcpy.os)
                0x280729f4                wmemcpy
                0x280729f4                __GI_wmemcpy
 .text          0x28072a14       0xf0 /cygdrive/c/ArmToolchain/arm-linux-uclibc/bin/../../lib/libc.a(inet_aton.os)
                0x28072a14                inet_aton
                0x28072a14                __GI_inet_aton
 .text          0x28072b04        0xc /cygdrive/c/ArmToolchain/arm-linux-uclibc/bin/../../lib/libc.a(fseeko.os)
                0x28072b04                __GI_fseek
                0x28072b04                fseeko
                0x28072b04                fseek
 .text          0x28072b10      0x148 /cygdrive/c/ArmToolchain/arm-linux-uclibc/bin/../../lib/libc.a(fseeko64.os)
                0x28072b10                __GI_fseeko64
                0x28072b10                fseeko64
 .text          0x28072c58       0xc4 /cygdrive/c/ArmToolchain/arm-linux-uclibc/bin/../../lib/libc.a(_adjust_pos.os)
                0x28072c58                __stdio_adjust_position
 .text          0x28072d1c      0x400 /cygdrive/c/ArmToolchain/bin/../lib/gcc/arm-linux-uclibc/4.1.2/libgcc.a(_addsubdf3.o)
                0x280730b0                __floatdidf
                0x28073030                __floatsidf
                0x28073008                __aeabi_ui2d
                0x28072d1c                __aeabi_drsub
                0x2807305c                __extendsfdf2
                0x28072d28                __adddf3
                0x28073008                __floatunsidf
                0x28072d28                __aeabi_dadd
                0x2807309c                __aeabi_ul2d
                0x28072d24                __aeabi_dsub
                0x2807309c                __floatundidf
                0x28073030                __aeabi_i2d
                0x280730b0                __aeabi_l2d
                0x2807305c                __aeabi_f2d
                0x28072d24                __subdf3
 .text          0x2807311c      0x52c /cygdrive/c/ArmToolchain/bin/../lib/gcc/arm-linux-uclibc/4.1.2/libgcc.a(_muldivdf3.o)
                0x28073444                __aeabi_ddiv
                0x2807311c                __aeabi_dmul
                0x28073444                __divdf3
                0x2807311c                __muldf3
 .text          0x28073648      0x128 /cygdrive/c/ArmToolchain/bin/../lib/gcc/arm-linux-uclibc/4.1.2/libgcc.a(_cmpdf2.o)
                0x28073734                __aeabi_dcmple
                0x28073658                __cmpdf2
                0x28073658                __eqdf2
                0x28073648                __gtdf2
                0x280736f8                __aeabi_cdcmple
                0x280736dc                __aeabi_cdrcmple
                0x28073650                __ltdf2
                0x28073720                __aeabi_dcmplt
                0x28073650                __ledf2
                0x2807375c                __aeabi_dcmpgt
                0x28073748                __aeabi_dcmpge
                0x28073658                __nedf2
                0x2807370c                __aeabi_dcmpeq
                0x280736f8                __aeabi_cdcmpeq
                0x28073648                __gedf2
 .text          0x28073770       0x54 /cygdrive/c/ArmToolchain/bin/../lib/gcc/arm-linux-uclibc/4.1.2/libgcc.a(_fixunsdfsi.o)
                0x28073770                __fixunsdfsi
                0x28073770                __aeabi_d2uiz
 *(.text.*personality*)
 *(.gnu.warning)
 *(.glue_7t)
 .glue_7t       0x280737c4        0x0 ../obj/Src/init.o
 .glue_7t       0x280737c4        0x0 ../obj/Src/wireless.o
 .glue_7t       0x280737c4        0x0 ../obj/Src/appsetup.o
 .glue_7t       0x280737c4        0x0 ../obj/Src/ChkOption.o
 .glue_7t       0x280737c4        0x0 ../obj/Src/Commlib.o
 .glue_7t       0x280737c4        0x0 ../obj/Src/devicetest.o
 .glue_7t       0x280737c4        0x0 ../obj/Src/Display.o
 .glue_7t       0x280737c4        0x0 ../obj/Src/getcard.o
 .glue_7t       0x280737c4        0x0 ../obj/Src/globalvar.o
 .glue_7t       0x280737c4        0x0 ../obj/Src/main.o
 .glue_7t       0x280737c4        0x0 ../obj/Src/MathLib.o
 .glue_7t       0x280737c4        0x0 ../obj/Src/New8110_ICC.o
 .glue_7t       0x280737c4        0x0 ../obj/Src/NewPosApi.o
 .glue_7t       0x280737c4        0x0 ../obj/Src/opermanage.o
 .glue_7t       0x280737c4        0x0 ../obj/Src/otherfunc.o
 .glue_7t       0x280737c4        0x0 ../obj/Src/posfiles.o
 .glue_7t       0x280737c4        0x0 ../obj/Src/PosLib.o
 .glue_7t       0x280737c4        0x0 ../obj/Src/posparams.o
 .glue_7t       0x280737c4        0x0 ../obj/Src/pospin.o
 .glue_7t       0x280737c4        0x0 ../obj/Src/Rs232lib.o
 .glue_7t       0x280737c4        0x0 ../obj/Src/trancomm.o
 .glue_7t       0x280737c4        0x0 ../obj/Src/tranprint.o
 .glue_7t       0x280737c4        0x0 ../obj/Src/tranproc.o
 .glue_7t       0x280737c4        0x0 ../obj/Src/m1_card/m1_card_proc.o
 .glue_7t       0x280737c4        0x0 ../obj/Src/showDebug/showDebug.o
 .glue_7t       0x280737c4        0x0 ../obj/Src/m1_tranproc.o
 .glue_7t       0x280737c4        0x0 ../obj/Src/LocalFtp.o
 .glue_7t       0x280737c4        0x0 ../obj/Src/NewTime.o
 .glue_7t       0x280737c4        0x0 ../obj/Src/st8583.o
 .glue_7t       0x280737c4        0x0 ../obj/Src/emvtranproc.o
 .glue_7t       0x280737c4        0x0 ../obj/Src/emvtrantest.o
 .glue_7t       0x280737c4        0x0 ../obj/Src/Menu.o
 .glue_7t       0x280737c4        0x0 ../obj/Src/otherTxn.o
 .glue_7t       0x280737c4        0x0 ../obj/Src/pack8583.o
 .glue_7t       0x280737c4        0x0 ../obj/Src/qpbocProc.o
 .glue_7t       0x280737c4        0x0 ../SDK/lib/libseos.a(dll.o)
 .glue_7t       0x280737c4        0x0 ../SDK/lib/libemv.a(emv_core_func.o)
 .glue_7t       0x280737c4        0x0 ../SDK/lib/libemv.a(emvaidlist.o)
 .glue_7t       0x280737c4        0x0 ../SDK/lib/libemv.a(emvappselect.o)
 .glue_7t       0x280737c4        0x0 ../SDK/lib/libemv.a(emvcandapp.o)
 .glue_7t       0x280737c4        0x0 ../SDK/lib/libemv.a(emvcapk.o)
 .glue_7t       0x280737c4        0x0 ../SDK/lib/libemv.a(emvcomplete.o)
 .glue_7t       0x280737c4        0x0 ../SDK/lib/libemv.a(emvconfigure.o)
 .glue_7t       0x280737c4        0x0 ../SDK/lib/libemv.a(emvcvm.o)
 .glue_7t       0x280737c4        0x0 ../SDK/lib/libemv.a(emvddflist.o)
 .glue_7t       0x280737c4        0x0 ../SDK/lib/libemv.a(emvdol.o)
 .glue_7t       0x280737c4        0x0 ../SDK/lib/libemv.a(emvdte.o)
 .glue_7t       0x280737c4        0x0 ../SDK/lib/libemv.a(emvicc.o)
 .glue_7t       0x280737c4        0x0 ../SDK/lib/libemv.a(emvoda.o)
 .glue_7t       0x280737c4        0x0 ../SDK/lib/libemv.a(emvodalist.o)
 .glue_7t       0x280737c4        0x0 ../SDK/lib/libemv.a(emvpinverify.o)
 .glue_7t       0x280737c4        0x0 ../SDK/lib/libemv.a(emvprocrest.o)
 .glue_7t       0x280737c4        0x0 ../SDK/lib/libemv.a(emvpubfunc.o)
 .glue_7t       0x280737c4        0x0 ../SDK/lib/libemv.a(emvreadappdata.o)
 .glue_7t       0x280737c4        0x0 ../SDK/lib/libemv.a(emvtac.o)
 .glue_7t       0x280737c4        0x0 ../SDK/lib/libemv.a(emvtermrisk.o)
 .glue_7t       0x280737c4        0x0 ../SDK/lib/libemv.a(emvtlv.o)
 .glue_7t       0x280737c4        0x0 ../SDK/lib/libemv.a(qpbocapi.o)
 .glue_7t       0x280737c4        0x0 ../SDK/lib/libemv.a(EmvRsa.o)
 .glue_7t       0x280737c4        0x0 ../SDK/lib/libemv.a(EmvSHA1.o)
 .glue_7t       0x280737c4        0x0 ../SDK/lib/libemv.a(qpboc_funcs.o)
 .glue_7t       0x280737c4        0x0 ../SDK/lib/libcrypto.a(perror.o)
 .glue_7t       0x280737c4        0x0 ../SDK/lib/libcrypto.a(sha1_one.o)
 .glue_7t       0x280737c4        0x0 ../SDK/lib/libcrypto.a(sha1dgst.o)
 .glue_7t       0x280737c4        0x0 ../SDK/lib/libcrypto.a(fprintf.o)
 .glue_7t       0x280737c4        0x0 ../SDK/lib/libcrypto.a(write.o)
 .glue_7t       0x280737c4        0x0 ../SDK/lib/libcrypto.a(console.o)
 .glue_7t       0x280737c4        0x0 ../SDK/lib/libcrypto.a(mem_clr.o)
 .glue_7t       0x280737c4        0x0 ../SDK/lib/libcrypto.a(fopen.o)
 .glue_7t       0x280737c4        0x0 ../SDK/lib/libcrypto.a(open.o)
 .glue_7t       0x280737c4        0x0 ../SDK/lib/liballoc.a(memmgr.o)
 .glue_7t       0x280737c4        0x0 ../SDK/lib/libftp.a(ftp.o)
 .glue_7t       0x280737c4        0x0 ../SDK/lib/libftp.a(net.o)
 .glue_7t       0x280737c4        0x0 /cygdrive/c/ArmToolchain/bin/../lib/gcc/arm-linux-uclibc/4.1.2/libgcc.a(_udivsi3.o)
 .glue_7t       0x280737c4        0x0 /cygdrive/c/ArmToolchain/bin/../lib/gcc/arm-linux-uclibc/4.1.2/libgcc.a(_divsi3.o)
 .glue_7t       0x280737c4        0x0 /cygdrive/c/ArmToolchain/bin/../lib/gcc/arm-linux-uclibc/4.1.2/libgcc.a(_umodsi3.o)
 .glue_7t       0x280737c4        0x0 /cygdrive/c/ArmToolchain/bin/../lib/gcc/arm-linux-uclibc/4.1.2/libgcc.a(_modsi3.o)
 .glue_7t       0x280737c4        0x0 /cygdrive/c/ArmToolchain/bin/../lib/gcc/arm-linux-uclibc/4.1.2/libgcc.a(_dvmd_lnx.o)
 .glue_7t       0x280737c4        0x0 /cygdrive/c/ArmToolchain/bin/../lib/gcc/arm-linux-uclibc/4.1.2/libgcc.a(_divdi3.o)
 .glue_7t       0x280737c4        0x0 /cygdrive/c/ArmToolchain/bin/../lib/gcc/arm-linux-uclibc/4.1.2/libgcc.a(_clz.o)
 .glue_7t       0x280737c4        0x0 /cygdrive/c/ArmToolchain/arm-linux-uclibc/bin/../../lib/libc.a(tolower.os)
 .glue_7t       0x280737c4        0x0 /cygdrive/c/ArmToolchain/arm-linux-uclibc/bin/../../lib/libc.a(toupper.os)
 .glue_7t       0x280737c4        0x0 /cygdrive/c/ArmToolchain/arm-linux-uclibc/bin/../../lib/libc.a(__C_ctype_b.os)
 .glue_7t       0x280737c4        0x0 /cygdrive/c/ArmToolchain/arm-linux-uclibc/bin/../../lib/libc.a(__C_ctype_tolower.os)
 .glue_7t       0x280737c4        0x0 /cygdrive/c/ArmToolchain/arm-linux-uclibc/bin/../../lib/libc.a(__C_ctype_toupper.os)
 .glue_7t       0x280737c4        0x0 /cygdrive/c/ArmToolchain/arm-linux-uclibc/bin/../../lib/libc.a(printf.os)
 .glue_7t       0x280737c4        0x0 /cygdrive/c/ArmToolchain/arm-linux-uclibc/bin/../../lib/libc.a(vsprintf.os)
 .glue_7t       0x280737c4        0x0 /cygdrive/c/ArmToolchain/arm-linux-uclibc/bin/../../lib/libc.a(snprintf.os)
 .glue_7t       0x280737c4        0x0 /cygdrive/c/ArmToolchain/arm-linux-uclibc/bin/../../lib/libc.a(sprintf.os)
 .glue_7t       0x280737c4        0x0 /cygdrive/c/ArmToolchain/arm-linux-uclibc/bin/../../lib/libc.a(vsnprintf.os)
 .glue_7t       0x280737c4        0x0 /cygdrive/c/ArmToolchain/arm-linux-uclibc/bin/../../lib/libc.a(_stdio.os)
 .glue_7t       0x280737c4        0x0 /cygdrive/c/ArmToolchain/arm-linux-uclibc/bin/../../lib/libc.a(_wcommit.os)
 .glue_7t       0x280737c4        0x0 /cygdrive/c/ArmToolchain/arm-linux-uclibc/bin/../../lib/libc.a(_cs_funcs.os)
 .glue_7t       0x280737c4        0x0 /cygdrive/c/ArmToolchain/arm-linux-uclibc/bin/../../lib/libc.a(vfprintf.os)
 .glue_7t       0x280737c4        0x0 /cygdrive/c/ArmToolchain/arm-linux-uclibc/bin/../../lib/libc.a(_ppfs_init.os)
 .glue_7t       0x280737c4        0x0 /cygdrive/c/ArmToolchain/arm-linux-uclibc/bin/../../lib/libc.a(_ppfs_prepargs.os)
 .glue_7t       0x280737c4        0x0 /cygdrive/c/ArmToolchain/arm-linux-uclibc/bin/../../lib/libc.a(_ppfs_setargs.os)
 .glue_7t       0x280737c4        0x0 /cygdrive/c/ArmToolchain/arm-linux-uclibc/bin/../../lib/libc.a(_ppfs_parsespec.os)
 .glue_7t       0x280737c4        0x0 /cygdrive/c/ArmToolchain/arm-linux-uclibc/bin/../../lib/libc.a(vswprintf.os)
 .glue_7t       0x280737c4        0x0 /cygdrive/c/ArmToolchain/arm-linux-uclibc/bin/../../lib/libc.a(vfwprintf.os)
 .glue_7t       0x280737c4        0x0 /cygdrive/c/ArmToolchain/arm-linux-uclibc/bin/../../lib/libc.a(fputws.os)
 .glue_7t       0x280737c4        0x0 /cygdrive/c/ArmToolchain/arm-linux-uclibc/bin/../../lib/libc.a(fputs_unlocked.os)
 .glue_7t       0x280737c4        0x0 /cygdrive/c/ArmToolchain/arm-linux-uclibc/bin/../../lib/libc.a(fwrite_unlocked.os)
 .glue_7t       0x280737c4        0x0 /cygdrive/c/ArmToolchain/arm-linux-uclibc/bin/../../lib/libc.a(fputws_unlocked.os)
 .glue_7t       0x280737c4        0x0 /cygdrive/c/ArmToolchain/arm-linux-uclibc/bin/../../lib/libc.a(memcmp.os)
 .glue_7t       0x280737c4        0x0 /cygdrive/c/ArmToolchain/arm-linux-uclibc/bin/../../lib/libc.a(memcpy.os)
 .glue_7t       0x280737c4        0x0 /cygdrive/c/ArmToolchain/arm-linux-uclibc/bin/../../lib/libc.a(memmove.os)
 .glue_7t       0x280737c4        0x0 /cygdrive/c/ArmToolchain/arm-linux-uclibc/bin/../../lib/libc.a(memset.os)
 .glue_7t       0x280737c4        0x0 /cygdrive/c/ArmToolchain/arm-linux-uclibc/bin/../../lib/libc.a(strcmp.os)
 .glue_7t       0x280737c4        0x0 /cygdrive/c/ArmToolchain/arm-linux-uclibc/bin/../../lib/libc.a(strlen.os)
 .glue_7t       0x280737c4        0x0 /cygdrive/c/ArmToolchain/arm-linux-uclibc/bin/../../lib/libc.a(memchr.os)
 .glue_7t       0x280737c4        0x0 /cygdrive/c/ArmToolchain/arm-linux-uclibc/bin/../../lib/libc.a(strcat.os)
 .glue_7t       0x280737c4        0x0 /cygdrive/c/ArmToolchain/arm-linux-uclibc/bin/../../lib/libc.a(strchr.os)
 .glue_7t       0x280737c4        0x0 /cygdrive/c/ArmToolchain/arm-linux-uclibc/bin/../../lib/libc.a(strcpy.os)
 .glue_7t       0x280737c4        0x0 /cygdrive/c/ArmToolchain/arm-linux-uclibc/bin/../../lib/libc.a(strncpy.os)
 .glue_7t       0x280737c4        0x0 /cygdrive/c/ArmToolchain/arm-linux-uclibc/bin/../../lib/libc.a(strnlen.os)
 .glue_7t       0x280737c4        0x0 /cygdrive/c/ArmToolchain/arm-linux-uclibc/bin/../../lib/libc.a(strrchr.os)
 .glue_7t       0x280737c4        0x0 /cygdrive/c/ArmToolchain/arm-linux-uclibc/bin/../../lib/libc.a(strstr.os)
 .glue_7t       0x280737c4        0x0 /cygdrive/c/ArmToolchain/arm-linux-uclibc/bin/../../lib/libc.a(__glibc_strerror_r.os)
 .glue_7t       0x280737c4        0x0 /cygdrive/c/ArmToolchain/arm-linux-uclibc/bin/../../lib/libc.a(__xpg_strerror_r.os)
 .glue_7t       0x280737c4        0x0 /cygdrive/c/ArmToolchain/arm-linux-uclibc/bin/../../lib/libc.a(_string_syserrmsgs.os)
 .glue_7t       0x280737c4        0x0 /cygdrive/c/ArmToolchain/arm-linux-uclibc/bin/../../lib/libc.a(wcslen.os)
 .glue_7t       0x280737c4        0x0 /cygdrive/c/ArmToolchain/arm-linux-uclibc/bin/../../lib/libc.a(wcsnlen.os)
 .glue_7t       0x280737c4        0x0 /cygdrive/c/ArmToolchain/arm-linux-uclibc/bin/../../lib/libc.a(isatty.os)
 .glue_7t       0x280737c4        0x0 /cygdrive/c/ArmToolchain/arm-linux-uclibc/bin/../../lib/libc.a(tcgetattr.os)
 .glue_7t       0x280737c4        0x0 /cygdrive/c/ArmToolchain/arm-linux-uclibc/bin/../../lib/libc.a(ntop.os)
 .glue_7t       0x280737c4        0x0 /cygdrive/c/ArmToolchain/arm-linux-uclibc/bin/../../lib/libc.a(inet_makeaddr.os)
 .glue_7t       0x280737c4        0x0 /cygdrive/c/ArmToolchain/arm-linux-uclibc/bin/../../lib/libc.a(raise.os)
 .glue_7t       0x280737c4        0x0 /cygdrive/c/ArmToolchain/arm-linux-uclibc/bin/../../lib/libc.a(atol.os)
 .glue_7t       0x280737c4        0x0 /cygdrive/c/ArmToolchain/arm-linux-uclibc/bin/../../lib/libc.a(strtol.os)
 .glue_7t       0x280737c4        0x0 /cygdrive/c/ArmToolchain/arm-linux-uclibc/bin/../../lib/libc.a(_stdlib_strto_l.os)
 .glue_7t       0x280737c4        0x0 /cygdrive/c/ArmToolchain/arm-linux-uclibc/bin/../../lib/libc.a(close.os)
 .glue_7t       0x280737c4        0x0 /cygdrive/c/ArmToolchain/arm-linux-uclibc/bin/../../lib/libc.a(getpid.os)
 .glue_7t       0x280737c4        0x0 /cygdrive/c/ArmToolchain/arm-linux-uclibc/bin/../../lib/libc.a(ioctl.os)
 .glue_7t       0x280737c4        0x0 /cygdrive/c/ArmToolchain/arm-linux-uclibc/bin/../../lib/libc.a(kill.os)
 .glue_7t       0x280737c4        0x0 /cygdrive/c/ArmToolchain/arm-linux-uclibc/bin/../../lib/libc.a(llseek.os)
 .glue_7t       0x280737c4        0x0 /cygdrive/c/ArmToolchain/arm-linux-uclibc/bin/../../lib/libc.a(read.os)
 .glue_7t       0x280737c4        0x0 /cygdrive/c/ArmToolchain/arm-linux-uclibc/bin/../../lib/libc.a(write.os)
 .glue_7t       0x280737c4        0x0 /cygdrive/c/ArmToolchain/arm-linux-uclibc/bin/../../lib/libc.a(btowc.os)
 .glue_7t       0x280737c4        0x0 /cygdrive/c/ArmToolchain/arm-linux-uclibc/bin/../../lib/libc.a(wcrtomb.os)
 .glue_7t       0x280737c4        0x0 /cygdrive/c/ArmToolchain/arm-linux-uclibc/bin/../../lib/libc.a(mbsrtowcs.os)
 .glue_7t       0x280737c4        0x0 /cygdrive/c/ArmToolchain/arm-linux-uclibc/bin/../../lib/libc.a(wcsrtombs.os)
 .glue_7t       0x280737c4        0x0 /cygdrive/c/ArmToolchain/arm-linux-uclibc/bin/../../lib/libc.a(mbsnrtowcs.os)
 .glue_7t       0x280737c4        0x0 /cygdrive/c/ArmToolchain/arm-linux-uclibc/bin/../../lib/libc.a(wcsnrtombs.os)
 .glue_7t       0x280737c4        0x0 /cygdrive/c/ArmToolchain/arm-linux-uclibc/bin/../../lib/libc.a(_WRITE.os)
 .glue_7t       0x280737c4        0x0 /cygdrive/c/ArmToolchain/arm-linux-uclibc/bin/../../lib/libc.a(_fwrite.os)
 .glue_7t       0x280737c4        0x0 /cygdrive/c/ArmToolchain/arm-linux-uclibc/bin/../../lib/libc.a(_trans2w.os)
 .glue_7t       0x280737c4        0x0 /cygdrive/c/ArmToolchain/arm-linux-uclibc/bin/../../lib/libc.a(_load_inttype.os)
 .glue_7t       0x280737c4        0x0 /cygdrive/c/ArmToolchain/arm-linux-uclibc/bin/../../lib/libc.a(_store_inttype.os)
 .glue_7t       0x280737c4        0x0 /cygdrive/c/ArmToolchain/arm-linux-uclibc/bin/../../lib/libc.a(_uintmaxtostr.os)
 .glue_7t       0x280737c4        0x0 /cygdrive/c/ArmToolchain/arm-linux-uclibc/bin/../../lib/libc.a(_fpmaxtostr.os)
 .glue_7t       0x280737c4        0x0 /cygdrive/c/ArmToolchain/arm-linux-uclibc/bin/../../lib/libc.a(_wfwrite.os)
 .glue_7t       0x280737c4        0x0 /cygdrive/c/ArmToolchain/arm-linux-uclibc/bin/../../lib/libc.a(_memcpy.os)
 .glue_7t       0x280737c4        0x0 /cygdrive/c/ArmToolchain/arm-linux-uclibc/bin/../../lib/libc.a(mempcpy.os)
 .glue_7t       0x280737c4        0x0 /cygdrive/c/ArmToolchain/arm-linux-uclibc/bin/../../lib/libc.a(memrchr.os)
 .glue_7t       0x280737c4        0x0 /cygdrive/c/ArmToolchain/arm-linux-uclibc/bin/../../lib/libc.a(wmemcpy.os)
 .glue_7t       0x280737c4        0x0 /cygdrive/c/ArmToolchain/arm-linux-uclibc/bin/../../lib/libc.a(inet_aton.os)
 .glue_7t       0x280737c4        0x0 /cygdrive/c/ArmToolchain/arm-linux-uclibc/bin/../../lib/libc.a(fseeko.os)
 .glue_7t       0x280737c4        0x0 /cygdrive/c/ArmToolchain/arm-linux-uclibc/bin/../../lib/libc.a(fseeko64.os)
 .glue_7t       0x280737c4        0x0 /cygdrive/c/ArmToolchain/arm-linux-uclibc/bin/../../lib/libc.a(_adjust_pos.os)
 .glue_7t       0x280737c4        0x0 /cygdrive/c/ArmToolchain/bin/../lib/gcc/arm-linux-uclibc/4.1.2/libgcc.a(_addsubdf3.o)
 .glue_7t       0x280737c4        0x0 /cygdrive/c/ArmToolchain/bin/../lib/gcc/arm-linux-uclibc/4.1.2/libgcc.a(_muldivdf3.o)
 .glue_7t       0x280737c4        0x0 /cygdrive/c/ArmToolchain/bin/../lib/gcc/arm-linux-uclibc/4.1.2/libgcc.a(_cmpdf2.o)
 .glue_7t       0x280737c4        0x0 /cygdrive/c/ArmToolchain/bin/../lib/gcc/arm-linux-uclibc/4.1.2/libgcc.a(_fixunsdfsi.o)
 *(.glue_7)
 .glue_7        0x280737c4        0x0 ../obj/Src/init.o
 .glue_7        0x280737c4        0x0 ../obj/Src/wireless.o
 .glue_7        0x280737c4        0x0 ../obj/Src/appsetup.o
 .glue_7        0x280737c4        0x0 ../obj/Src/ChkOption.o
 .glue_7        0x280737c4        0x0 ../obj/Src/Commlib.o
 .glue_7        0x280737c4        0x0 ../obj/Src/devicetest.o
 .glue_7        0x280737c4        0x0 ../obj/Src/Display.o
 .glue_7        0x280737c4        0x0 ../obj/Src/getcard.o
 .glue_7        0x280737c4        0x0 ../obj/Src/globalvar.o
 .glue_7        0x280737c4        0x0 ../obj/Src/main.o
 .glue_7        0x280737c4        0x0 ../obj/Src/MathLib.o
 .glue_7        0x280737c4        0x0 ../obj/Src/New8110_ICC.o
 .glue_7        0x280737c4        0x0 ../obj/Src/NewPosApi.o
 .glue_7        0x280737c4        0x0 ../obj/Src/opermanage.o
 .glue_7        0x280737c4        0x0 ../obj/Src/otherfunc.o
 .glue_7        0x280737c4        0x0 ../obj/Src/posfiles.o
 .glue_7        0x280737c4        0x0 ../obj/Src/PosLib.o
 .glue_7        0x280737c4        0x0 ../obj/Src/posparams.o
 .glue_7        0x280737c4        0x0 ../obj/Src/pospin.o
 .glue_7        0x280737c4        0x0 ../obj/Src/Rs232lib.o
 .glue_7        0x280737c4        0x0 ../obj/Src/trancomm.o
 .glue_7        0x280737c4        0x0 ../obj/Src/tranprint.o
 .glue_7        0x280737c4        0x0 ../obj/Src/tranproc.o
 .glue_7        0x280737c4        0x0 ../obj/Src/m1_card/m1_card_proc.o
 .glue_7        0x280737c4        0x0 ../obj/Src/showDebug/showDebug.o
 .glue_7        0x280737c4        0x0 ../obj/Src/m1_tranproc.o
 .glue_7        0x280737c4        0x0 ../obj/Src/LocalFtp.o
 .glue_7        0x280737c4        0x0 ../obj/Src/NewTime.o
 .glue_7        0x280737c4        0x0 ../obj/Src/st8583.o
 .glue_7        0x280737c4        0x0 ../obj/Src/emvtranproc.o
 .glue_7        0x280737c4        0x0 ../obj/Src/emvtrantest.o
 .glue_7        0x280737c4        0x0 ../obj/Src/Menu.o
 .glue_7        0x280737c4        0x0 ../obj/Src/otherTxn.o
 .glue_7        0x280737c4        0x0 ../obj/Src/pack8583.o
 .glue_7        0x280737c4        0x0 ../obj/Src/qpbocProc.o
 .glue_7        0x280737c4        0x0 ../SDK/lib/libseos.a(dll.o)
 .glue_7        0x280737c4        0x0 ../SDK/lib/libemv.a(emv_core_func.o)
 .glue_7        0x280737c4        0x0 ../SDK/lib/libemv.a(emvaidlist.o)
 .glue_7        0x280737c4        0x0 ../SDK/lib/libemv.a(emvappselect.o)
 .glue_7        0x280737c4        0x0 ../SDK/lib/libemv.a(emvcandapp.o)
 .glue_7        0x280737c4        0x0 ../SDK/lib/libemv.a(emvcapk.o)
 .glue_7        0x280737c4        0x0 ../SDK/lib/libemv.a(emvcomplete.o)
 .glue_7        0x280737c4        0x0 ../SDK/lib/libemv.a(emvconfigure.o)
 .glue_7        0x280737c4        0x0 ../SDK/lib/libemv.a(emvcvm.o)
 .glue_7        0x280737c4        0x0 ../SDK/lib/libemv.a(emvddflist.o)
 .glue_7        0x280737c4        0x0 ../SDK/lib/libemv.a(emvdol.o)
 .glue_7        0x280737c4        0x0 ../SDK/lib/libemv.a(emvdte.o)
 .glue_7        0x280737c4        0x0 ../SDK/lib/libemv.a(emvicc.o)
 .glue_7        0x280737c4        0x0 ../SDK/lib/libemv.a(emvoda.o)
 .glue_7        0x280737c4        0x0 ../SDK/lib/libemv.a(emvodalist.o)
 .glue_7        0x280737c4        0x0 ../SDK/lib/libemv.a(emvpinverify.o)
 .glue_7        0x280737c4        0x0 ../SDK/lib/libemv.a(emvprocrest.o)
 .glue_7        0x280737c4        0x0 ../SDK/lib/libemv.a(emvpubfunc.o)
 .glue_7        0x280737c4        0x0 ../SDK/lib/libemv.a(emvreadappdata.o)
 .glue_7        0x280737c4        0x0 ../SDK/lib/libemv.a(emvtac.o)
 .glue_7        0x280737c4        0x0 ../SDK/lib/libemv.a(emvtermrisk.o)
 .glue_7        0x280737c4        0x0 ../SDK/lib/libemv.a(emvtlv.o)
 .glue_7        0x280737c4        0x0 ../SDK/lib/libemv.a(qpbocapi.o)
 .glue_7        0x280737c4        0x0 ../SDK/lib/libemv.a(EmvRsa.o)
 .glue_7        0x280737c4        0x0 ../SDK/lib/libemv.a(EmvSHA1.o)
 .glue_7        0x280737c4        0x0 ../SDK/lib/libemv.a(qpboc_funcs.o)
 .glue_7        0x280737c4        0x0 ../SDK/lib/libcrypto.a(perror.o)
 .glue_7        0x280737c4        0x0 ../SDK/lib/libcrypto.a(sha1_one.o)
 .glue_7        0x280737c4        0x0 ../SDK/lib/libcrypto.a(sha1dgst.o)
 .glue_7        0x280737c4        0x0 ../SDK/lib/libcrypto.a(fprintf.o)
 .glue_7        0x280737c4        0x0 ../SDK/lib/libcrypto.a(write.o)
 .glue_7        0x280737c4        0x0 ../SDK/lib/libcrypto.a(console.o)
 .glue_7        0x280737c4        0x0 ../SDK/lib/libcrypto.a(mem_clr.o)
 .glue_7        0x280737c4        0x0 ../SDK/lib/libcrypto.a(fopen.o)
 .glue_7        0x280737c4        0x0 ../SDK/lib/libcrypto.a(open.o)
 .glue_7        0x280737c4        0x0 ../SDK/lib/liballoc.a(memmgr.o)
 .glue_7        0x280737c4        0x0 ../SDK/lib/libftp.a(ftp.o)
 .glue_7        0x280737c4        0x0 ../SDK/lib/libftp.a(net.o)
 .glue_7        0x280737c4        0x0 /cygdrive/c/ArmToolchain/bin/../lib/gcc/arm-linux-uclibc/4.1.2/libgcc.a(_udivsi3.o)
 .glue_7        0x280737c4        0x0 /cygdrive/c/ArmToolchain/bin/../lib/gcc/arm-linux-uclibc/4.1.2/libgcc.a(_divsi3.o)
 .glue_7        0x280737c4        0x0 /cygdrive/c/ArmToolchain/bin/../lib/gcc/arm-linux-uclibc/4.1.2/libgcc.a(_umodsi3.o)
 .glue_7        0x280737c4        0x0 /cygdrive/c/ArmToolchain/bin/../lib/gcc/arm-linux-uclibc/4.1.2/libgcc.a(_modsi3.o)
 .glue_7        0x280737c4        0x0 /cygdrive/c/ArmToolchain/bin/../lib/gcc/arm-linux-uclibc/4.1.2/libgcc.a(_dvmd_lnx.o)
 .glue_7        0x280737c4        0x0 /cygdrive/c/ArmToolchain/bin/../lib/gcc/arm-linux-uclibc/4.1.2/libgcc.a(_divdi3.o)
 .glue_7        0x280737c4        0x0 /cygdrive/c/ArmToolchain/bin/../lib/gcc/arm-linux-uclibc/4.1.2/libgcc.a(_clz.o)
 .glue_7        0x280737c4        0x0 /cygdrive/c/ArmToolchain/arm-linux-uclibc/bin/../../lib/libc.a(tolower.os)
 .glue_7        0x280737c4        0x0 /cygdrive/c/ArmToolchain/arm-linux-uclibc/bin/../../lib/libc.a(toupper.os)
 .glue_7        0x280737c4        0x0 /cygdrive/c/ArmToolchain/arm-linux-uclibc/bin/../../lib/libc.a(__C_ctype_b.os)
 .glue_7        0x280737c4        0x0 /cygdrive/c/ArmToolchain/arm-linux-uclibc/bin/../../lib/libc.a(__C_ctype_tolower.os)
 .glue_7        0x280737c4        0x0 /cygdrive/c/ArmToolchain/arm-linux-uclibc/bin/../../lib/libc.a(__C_ctype_toupper.os)
 .glue_7        0x280737c4        0x0 /cygdrive/c/ArmToolchain/arm-linux-uclibc/bin/../../lib/libc.a(printf.os)
 .glue_7        0x280737c4        0x0 /cygdrive/c/ArmToolchain/arm-linux-uclibc/bin/../../lib/libc.a(vsprintf.os)
 .glue_7        0x280737c4        0x0 /cygdrive/c/ArmToolchain/arm-linux-uclibc/bin/../../lib/libc.a(snprintf.os)
 .glue_7        0x280737c4        0x0 /cygdrive/c/ArmToolchain/arm-linux-uclibc/bin/../../lib/libc.a(sprintf.os)
 .glue_7        0x280737c4        0x0 /cygdrive/c/ArmToolchain/arm-linux-uclibc/bin/../../lib/libc.a(vsnprintf.os)
 .glue_7        0x280737c4        0x0 /cygdrive/c/ArmToolchain/arm-linux-uclibc/bin/../../lib/libc.a(_stdio.os)
 .glue_7        0x280737c4        0x0 /cygdrive/c/ArmToolchain/arm-linux-uclibc/bin/../../lib/libc.a(_wcommit.os)
 .glue_7        0x280737c4        0x0 /cygdrive/c/ArmToolchain/arm-linux-uclibc/bin/../../lib/libc.a(_cs_funcs.os)
 .glue_7        0x280737c4        0x0 /cygdrive/c/ArmToolchain/arm-linux-uclibc/bin/../../lib/libc.a(vfprintf.os)
 .glue_7        0x280737c4        0x0 /cygdrive/c/ArmToolchain/arm-linux-uclibc/bin/../../lib/libc.a(_ppfs_init.os)
 .glue_7        0x280737c4        0x0 /cygdrive/c/ArmToolchain/arm-linux-uclibc/bin/../../lib/libc.a(_ppfs_prepargs.os)
 .glue_7        0x280737c4        0x0 /cygdrive/c/ArmToolchain/arm-linux-uclibc/bin/../../lib/libc.a(_ppfs_setargs.os)
 .glue_7        0x280737c4        0x0 /cygdrive/c/ArmToolchain/arm-linux-uclibc/bin/../../lib/libc.a(_ppfs_parsespec.os)
 .glue_7        0x280737c4        0x0 /cygdrive/c/ArmToolchain/arm-linux-uclibc/bin/../../lib/libc.a(vswprintf.os)
 .glue_7        0x280737c4        0x0 /cygdrive/c/ArmToolchain/arm-linux-uclibc/bin/../../lib/libc.a(vfwprintf.os)
 .glue_7        0x280737c4        0x0 /cygdrive/c/ArmToolchain/arm-linux-uclibc/bin/../../lib/libc.a(fputws.os)
 .glue_7        0x280737c4        0x0 /cygdrive/c/ArmToolchain/arm-linux-uclibc/bin/../../lib/libc.a(fputs_unlocked.os)
 .glue_7        0x280737c4        0x0 /cygdrive/c/ArmToolchain/arm-linux-uclibc/bin/../../lib/libc.a(fwrite_unlocked.os)
 .glue_7        0x280737c4        0x0 /cygdrive/c/ArmToolchain/arm-linux-uclibc/bin/../../lib/libc.a(fputws_unlocked.os)
 .glue_7        0x280737c4        0x0 /cygdrive/c/ArmToolchain/arm-linux-uclibc/bin/../../lib/libc.a(memcmp.os)
 .glue_7        0x280737c4        0x0 /cygdrive/c/ArmToolchain/arm-linux-uclibc/bin/../../lib/libc.a(memcpy.os)
 .glue_7        0x280737c4        0x0 /cygdrive/c/ArmToolchain/arm-linux-uclibc/bin/../../lib/libc.a(memmove.os)
 .glue_7        0x280737c4        0x0 /cygdrive/c/ArmToolchain/arm-linux-uclibc/bin/../../lib/libc.a(memset.os)
 .glue_7        0x280737c4        0x0 /cygdrive/c/ArmToolchain/arm-linux-uclibc/bin/../../lib/libc.a(strcmp.os)
 .glue_7        0x280737c4        0x0 /cygdrive/c/ArmToolchain/arm-linux-uclibc/bin/../../lib/libc.a(strlen.os)
 .glue_7        0x280737c4        0x0 /cygdrive/c/ArmToolchain/arm-linux-uclibc/bin/../../lib/libc.a(memchr.os)
 .glue_7        0x280737c4        0x0 /cygdrive/c/ArmToolchain/arm-linux-uclibc/bin/../../lib/libc.a(strcat.os)
 .glue_7        0x280737c4        0x0 /cygdrive/c/ArmToolchain/arm-linux-uclibc/bin/../../lib/libc.a(strchr.os)
 .glue_7        0x280737c4        0x0 /cygdrive/c/ArmToolchain/arm-linux-uclibc/bin/../../lib/libc.a(strcpy.os)
 .glue_7        0x280737c4        0x0 /cygdrive/c/ArmToolchain/arm-linux-uclibc/bin/../../lib/libc.a(strncpy.os)
 .glue_7        0x280737c4        0x0 /cygdrive/c/ArmToolchain/arm-linux-uclibc/bin/../../lib/libc.a(strnlen.os)
 .glue_7        0x280737c4        0x0 /cygdrive/c/ArmToolchain/arm-linux-uclibc/bin/../../lib/libc.a(strrchr.os)
 .glue_7        0x280737c4        0x0 /cygdrive/c/ArmToolchain/arm-linux-uclibc/bin/../../lib/libc.a(strstr.os)
 .glue_7        0x280737c4        0x0 /cygdrive/c/ArmToolchain/arm-linux-uclibc/bin/../../lib/libc.a(__glibc_strerror_r.os)
 .glue_7        0x280737c4        0x0 /cygdrive/c/ArmToolchain/arm-linux-uclibc/bin/../../lib/libc.a(__xpg_strerror_r.os)
 .glue_7        0x280737c4        0x0 /cygdrive/c/ArmToolchain/arm-linux-uclibc/bin/../../lib/libc.a(_string_syserrmsgs.os)
 .glue_7        0x280737c4        0x0 /cygdrive/c/ArmToolchain/arm-linux-uclibc/bin/../../lib/libc.a(wcslen.os)
 .glue_7        0x280737c4        0x0 /cygdrive/c/ArmToolchain/arm-linux-uclibc/bin/../../lib/libc.a(wcsnlen.os)
 .glue_7        0x280737c4        0x0 /cygdrive/c/ArmToolchain/arm-linux-uclibc/bin/../../lib/libc.a(isatty.os)
 .glue_7        0x280737c4        0x0 /cygdrive/c/ArmToolchain/arm-linux-uclibc/bin/../../lib/libc.a(tcgetattr.os)
 .glue_7        0x280737c4        0x0 /cygdrive/c/ArmToolchain/arm-linux-uclibc/bin/../../lib/libc.a(ntop.os)
 .glue_7        0x280737c4        0x0 /cygdrive/c/ArmToolchain/arm-linux-uclibc/bin/../../lib/libc.a(inet_makeaddr.os)
 .glue_7        0x280737c4        0x0 /cygdrive/c/ArmToolchain/arm-linux-uclibc/bin/../../lib/libc.a(raise.os)
 .glue_7        0x280737c4        0x0 /cygdrive/c/ArmToolchain/arm-linux-uclibc/bin/../../lib/libc.a(atol.os)
 .glue_7        0x280737c4        0x0 /cygdrive/c/ArmToolchain/arm-linux-uclibc/bin/../../lib/libc.a(strtol.os)
 .glue_7        0x280737c4        0x0 /cygdrive/c/ArmToolchain/arm-linux-uclibc/bin/../../lib/libc.a(_stdlib_strto_l.os)
 .glue_7        0x280737c4        0x0 /cygdrive/c/ArmToolchain/arm-linux-uclibc/bin/../../lib/libc.a(close.os)
 .glue_7        0x280737c4        0x0 /cygdrive/c/ArmToolchain/arm-linux-uclibc/bin/../../lib/libc.a(getpid.os)
 .glue_7        0x280737c4        0x0 /cygdrive/c/ArmToolchain/arm-linux-uclibc/bin/../../lib/libc.a(ioctl.os)
 .glue_7        0x280737c4        0x0 /cygdrive/c/ArmToolchain/arm-linux-uclibc/bin/../../lib/libc.a(kill.os)
 .glue_7        0x280737c4        0x0 /cygdrive/c/ArmToolchain/arm-linux-uclibc/bin/../../lib/libc.a(llseek.os)
 .glue_7        0x280737c4        0x0 /cygdrive/c/ArmToolchain/arm-linux-uclibc/bin/../../lib/libc.a(read.os)
 .glue_7        0x280737c4        0x0 /cygdrive/c/ArmToolchain/arm-linux-uclibc/bin/../../lib/libc.a(write.os)
 .glue_7        0x280737c4        0x0 /cygdrive/c/ArmToolchain/arm-linux-uclibc/bin/../../lib/libc.a(btowc.os)
 .glue_7        0x280737c4        0x0 /cygdrive/c/ArmToolchain/arm-linux-uclibc/bin/../../lib/libc.a(wcrtomb.os)
 .glue_7        0x280737c4        0x0 /cygdrive/c/ArmToolchain/arm-linux-uclibc/bin/../../lib/libc.a(mbsrtowcs.os)
 .glue_7        0x280737c4        0x0 /cygdrive/c/ArmToolchain/arm-linux-uclibc/bin/../../lib/libc.a(wcsrtombs.os)
 .glue_7        0x280737c4        0x0 /cygdrive/c/ArmToolchain/arm-linux-uclibc/bin/../../lib/libc.a(mbsnrtowcs.os)
 .glue_7        0x280737c4        0x0 /cygdrive/c/ArmToolchain/arm-linux-uclibc/bin/../../lib/libc.a(wcsnrtombs.os)
 .glue_7        0x280737c4        0x0 /cygdrive/c/ArmToolchain/arm-linux-uclibc/bin/../../lib/libc.a(_WRITE.os)
 .glue_7        0x280737c4        0x0 /cygdrive/c/ArmToolchain/arm-linux-uclibc/bin/../../lib/libc.a(_fwrite.os)
 .glue_7        0x280737c4        0x0 /cygdrive/c/ArmToolchain/arm-linux-uclibc/bin/../../lib/libc.a(_trans2w.os)
 .glue_7        0x280737c4        0x0 /cygdrive/c/ArmToolchain/arm-linux-uclibc/bin/../../lib/libc.a(_load_inttype.os)
 .glue_7        0x280737c4        0x0 /cygdrive/c/ArmToolchain/arm-linux-uclibc/bin/../../lib/libc.a(_store_inttype.os)
 .glue_7        0x280737c4        0x0 /cygdrive/c/ArmToolchain/arm-linux-uclibc/bin/../../lib/libc.a(_uintmaxtostr.os)
 .glue_7        0x280737c4        0x0 /cygdrive/c/ArmToolchain/arm-linux-uclibc/bin/../../lib/libc.a(_fpmaxtostr.os)
 .glue_7        0x280737c4        0x0 /cygdrive/c/ArmToolchain/arm-linux-uclibc/bin/../../lib/libc.a(_wfwrite.os)
 .glue_7        0x280737c4        0x0 /cygdrive/c/ArmToolchain/arm-linux-uclibc/bin/../../lib/libc.a(_memcpy.os)
 .glue_7        0x280737c4        0x0 /cygdrive/c/ArmToolchain/arm-linux-uclibc/bin/../../lib/libc.a(mempcpy.os)
 .glue_7        0x280737c4        0x0 /cygdrive/c/ArmToolchain/arm-linux-uclibc/bin/../../lib/libc.a(memrchr.os)
 .glue_7        0x280737c4        0x0 /cygdrive/c/ArmToolchain/arm-linux-uclibc/bin/../../lib/libc.a(wmemcpy.os)
 .glue_7        0x280737c4        0x0 /cygdrive/c/ArmToolchain/arm-linux-uclibc/bin/../../lib/libc.a(inet_aton.os)
 .glue_7        0x280737c4        0x0 /cygdrive/c/ArmToolchain/arm-linux-uclibc/bin/../../lib/libc.a(fseeko.os)
 .glue_7        0x280737c4        0x0 /cygdrive/c/ArmToolchain/arm-linux-uclibc/bin/../../lib/libc.a(fseeko64.os)
 .glue_7        0x280737c4        0x0 /cygdrive/c/ArmToolchain/arm-linux-uclibc/bin/../../lib/libc.a(_adjust_pos.os)
 .glue_7        0x280737c4        0x0 /cygdrive/c/ArmToolchain/bin/../lib/gcc/arm-linux-uclibc/4.1.2/libgcc.a(_addsubdf3.o)
 .glue_7        0x280737c4        0x0 /cygdrive/c/ArmToolchain/bin/../lib/gcc/arm-linux-uclibc/4.1.2/libgcc.a(_muldivdf3.o)
 .glue_7        0x280737c4        0x0 /cygdrive/c/ArmToolchain/bin/../lib/gcc/arm-linux-uclibc/4.1.2/libgcc.a(_cmpdf2.o)
 .glue_7        0x280737c4        0x0 /cygdrive/c/ArmToolchain/bin/../lib/gcc/arm-linux-uclibc/4.1.2/libgcc.a(_fixunsdfsi.o)
 *(.vfp11_veneer)
 .vfp11_veneer  0x280737c4        0x0 ../obj/Src/init.o
 .vfp11_veneer  0x280737c4        0x0 ../obj/Src/wireless.o
 .vfp11_veneer  0x280737c4        0x0 ../obj/Src/appsetup.o
 .vfp11_veneer  0x280737c4        0x0 ../obj/Src/ChkOption.o
 .vfp11_veneer  0x280737c4        0x0 ../obj/Src/Commlib.o
 .vfp11_veneer  0x280737c4        0x0 ../obj/Src/devicetest.o
 .vfp11_veneer  0x280737c4        0x0 ../obj/Src/Display.o
 .vfp11_veneer  0x280737c4        0x0 ../obj/Src/getcard.o
 .vfp11_veneer  0x280737c4        0x0 ../obj/Src/globalvar.o
 .vfp11_veneer  0x280737c4        0x0 ../obj/Src/main.o
 .vfp11_veneer  0x280737c4        0x0 ../obj/Src/MathLib.o
 .vfp11_veneer  0x280737c4        0x0 ../obj/Src/New8110_ICC.o
 .vfp11_veneer  0x280737c4        0x0 ../obj/Src/NewPosApi.o
 .vfp11_veneer  0x280737c4        0x0 ../obj/Src/opermanage.o
 .vfp11_veneer  0x280737c4        0x0 ../obj/Src/otherfunc.o
 .vfp11_veneer  0x280737c4        0x0 ../obj/Src/posfiles.o
 .vfp11_veneer  0x280737c4        0x0 ../obj/Src/PosLib.o
 .vfp11_veneer  0x280737c4        0x0 ../obj/Src/posparams.o
 .vfp11_veneer  0x280737c4        0x0 ../obj/Src/pospin.o
 .vfp11_veneer  0x280737c4        0x0 ../obj/Src/Rs232lib.o
 .vfp11_veneer  0x280737c4        0x0 ../obj/Src/trancomm.o
 .vfp11_veneer  0x280737c4        0x0 ../obj/Src/tranprint.o
 .vfp11_veneer  0x280737c4        0x0 ../obj/Src/tranproc.o
 .vfp11_veneer  0x280737c4        0x0 ../obj/Src/m1_card/m1_card_proc.o
 .vfp11_veneer  0x280737c4        0x0 ../obj/Src/showDebug/showDebug.o
 .vfp11_veneer  0x280737c4        0x0 ../obj/Src/m1_tranproc.o
 .vfp11_veneer  0x280737c4        0x0 ../obj/Src/LocalFtp.o
 .vfp11_veneer  0x280737c4        0x0 ../obj/Src/NewTime.o
 .vfp11_veneer  0x280737c4        0x0 ../obj/Src/st8583.o
 .vfp11_veneer  0x280737c4        0x0 ../obj/Src/emvtranproc.o
 .vfp11_veneer  0x280737c4        0x0 ../obj/Src/emvtrantest.o
 .vfp11_veneer  0x280737c4        0x0 ../obj/Src/Menu.o
 .vfp11_veneer  0x280737c4        0x0 ../obj/Src/otherTxn.o
 .vfp11_veneer  0x280737c4        0x0 ../obj/Src/pack8583.o
 .vfp11_veneer  0x280737c4        0x0 ../obj/Src/qpbocProc.o
 .vfp11_veneer  0x280737c4        0x0 ../SDK/lib/libseos.a(dll.o)
 .vfp11_veneer  0x280737c4        0x0 ../SDK/lib/libemv.a(emv_core_func.o)
 .vfp11_veneer  0x280737c4        0x0 ../SDK/lib/libemv.a(emvaidlist.o)
 .vfp11_veneer  0x280737c4        0x0 ../SDK/lib/libemv.a(emvappselect.o)
 .vfp11_veneer  0x280737c4        0x0 ../SDK/lib/libemv.a(emvcandapp.o)
 .vfp11_veneer  0x280737c4        0x0 ../SDK/lib/libemv.a(emvcapk.o)
 .vfp11_veneer  0x280737c4        0x0 ../SDK/lib/libemv.a(emvcomplete.o)
 .vfp11_veneer  0x280737c4        0x0 ../SDK/lib/libemv.a(emvconfigure.o)
 .vfp11_veneer  0x280737c4        0x0 ../SDK/lib/libemv.a(emvcvm.o)
 .vfp11_veneer  0x280737c4        0x0 ../SDK/lib/libemv.a(emvddflist.o)
 .vfp11_veneer  0x280737c4        0x0 ../SDK/lib/libemv.a(emvdol.o)
 .vfp11_veneer  0x280737c4        0x0 ../SDK/lib/libemv.a(emvdte.o)
 .vfp11_veneer  0x280737c4        0x0 ../SDK/lib/libemv.a(emvicc.o)
 .vfp11_veneer  0x280737c4        0x0 ../SDK/lib/libemv.a(emvoda.o)
 .vfp11_veneer  0x280737c4        0x0 ../SDK/lib/libemv.a(emvodalist.o)
 .vfp11_veneer  0x280737c4        0x0 ../SDK/lib/libemv.a(emvpinverify.o)
 .vfp11_veneer  0x280737c4        0x0 ../SDK/lib/libemv.a(emvprocrest.o)
 .vfp11_veneer  0x280737c4        0x0 ../SDK/lib/libemv.a(emvpubfunc.o)
 .vfp11_veneer  0x280737c4        0x0 ../SDK/lib/libemv.a(emvreadappdata.o)
 .vfp11_veneer  0x280737c4        0x0 ../SDK/lib/libemv.a(emvtac.o)
 .vfp11_veneer  0x280737c4        0x0 ../SDK/lib/libemv.a(emvtermrisk.o)
 .vfp11_veneer  0x280737c4        0x0 ../SDK/lib/libemv.a(emvtlv.o)
 .vfp11_veneer  0x280737c4        0x0 ../SDK/lib/libemv.a(qpbocapi.o)
 .vfp11_veneer  0x280737c4        0x0 ../SDK/lib/libemv.a(EmvRsa.o)
 .vfp11_veneer  0x280737c4        0x0 ../SDK/lib/libemv.a(EmvSHA1.o)
 .vfp11_veneer  0x280737c4        0x0 ../SDK/lib/libemv.a(qpboc_funcs.o)
 .vfp11_veneer  0x280737c4        0x0 ../SDK/lib/libcrypto.a(perror.o)
 .vfp11_veneer  0x280737c4        0x0 ../SDK/lib/libcrypto.a(sha1_one.o)
 .vfp11_veneer  0x280737c4        0x0 ../SDK/lib/libcrypto.a(sha1dgst.o)
 .vfp11_veneer  0x280737c4        0x0 ../SDK/lib/libcrypto.a(fprintf.o)
 .vfp11_veneer  0x280737c4        0x0 ../SDK/lib/libcrypto.a(write.o)
 .vfp11_veneer  0x280737c4        0x0 ../SDK/lib/libcrypto.a(console.o)
 .vfp11_veneer  0x280737c4        0x0 ../SDK/lib/libcrypto.a(mem_clr.o)
 .vfp11_veneer  0x280737c4        0x0 ../SDK/lib/libcrypto.a(fopen.o)
 .vfp11_veneer  0x280737c4        0x0 ../SDK/lib/libcrypto.a(open.o)
 .vfp11_veneer  0x280737c4        0x0 ../SDK/lib/liballoc.a(memmgr.o)
 .vfp11_veneer  0x280737c4        0x0 ../SDK/lib/libftp.a(ftp.o)
 .vfp11_veneer  0x280737c4        0x0 ../SDK/lib/libftp.a(net.o)
 .vfp11_veneer  0x280737c4        0x0 /cygdrive/c/ArmToolchain/bin/../lib/gcc/arm-linux-uclibc/4.1.2/libgcc.a(_udivsi3.o)
 .vfp11_veneer  0x280737c4        0x0 /cygdrive/c/ArmToolchain/bin/../lib/gcc/arm-linux-uclibc/4.1.2/libgcc.a(_divsi3.o)
 .vfp11_veneer  0x280737c4        0x0 /cygdrive/c/ArmToolchain/bin/../lib/gcc/arm-linux-uclibc/4.1.2/libgcc.a(_umodsi3.o)
 .vfp11_veneer  0x280737c4        0x0 /cygdrive/c/ArmToolchain/bin/../lib/gcc/arm-linux-uclibc/4.1.2/libgcc.a(_modsi3.o)
 .vfp11_veneer  0x280737c4        0x0 /cygdrive/c/ArmToolchain/bin/../lib/gcc/arm-linux-uclibc/4.1.2/libgcc.a(_dvmd_lnx.o)
 .vfp11_veneer  0x280737c4        0x0 /cygdrive/c/ArmToolchain/bin/../lib/gcc/arm-linux-uclibc/4.1.2/libgcc.a(_divdi3.o)
 .vfp11_veneer  0x280737c4        0x0 /cygdrive/c/ArmToolchain/bin/../lib/gcc/arm-linux-uclibc/4.1.2/libgcc.a(_clz.o)
 .vfp11_veneer  0x280737c4        0x0 /cygdrive/c/ArmToolchain/arm-linux-uclibc/bin/../../lib/libc.a(tolower.os)
 .vfp11_veneer  0x280737c4        0x0 /cygdrive/c/ArmToolchain/arm-linux-uclibc/bin/../../lib/libc.a(toupper.os)
 .vfp11_veneer  0x280737c4        0x0 /cygdrive/c/ArmToolchain/arm-linux-uclibc/bin/../../lib/libc.a(__C_ctype_b.os)
 .vfp11_veneer  0x280737c4        0x0 /cygdrive/c/ArmToolchain/arm-linux-uclibc/bin/../../lib/libc.a(__C_ctype_tolower.os)
 .vfp11_veneer  0x280737c4        0x0 /cygdrive/c/ArmToolchain/arm-linux-uclibc/bin/../../lib/libc.a(__C_ctype_toupper.os)
 .vfp11_veneer  0x280737c4        0x0 /cygdrive/c/ArmToolchain/arm-linux-uclibc/bin/../../lib/libc.a(printf.os)
 .vfp11_veneer  0x280737c4        0x0 /cygdrive/c/ArmToolchain/arm-linux-uclibc/bin/../../lib/libc.a(vsprintf.os)
 .vfp11_veneer  0x280737c4        0x0 /cygdrive/c/ArmToolchain/arm-linux-uclibc/bin/../../lib/libc.a(snprintf.os)
 .vfp11_veneer  0x280737c4        0x0 /cygdrive/c/ArmToolchain/arm-linux-uclibc/bin/../../lib/libc.a(sprintf.os)
 .vfp11_veneer  0x280737c4        0x0 /cygdrive/c/ArmToolchain/arm-linux-uclibc/bin/../../lib/libc.a(vsnprintf.os)
 .vfp11_veneer  0x280737c4        0x0 /cygdrive/c/ArmToolchain/arm-linux-uclibc/bin/../../lib/libc.a(_stdio.os)
 .vfp11_veneer  0x280737c4        0x0 /cygdrive/c/ArmToolchain/arm-linux-uclibc/bin/../../lib/libc.a(_wcommit.os)
 .vfp11_veneer  0x280737c4        0x0 /cygdrive/c/ArmToolchain/arm-linux-uclibc/bin/../../lib/libc.a(_cs_funcs.os)
 .vfp11_veneer  0x280737c4        0x0 /cygdrive/c/ArmToolchain/arm-linux-uclibc/bin/../../lib/libc.a(vfprintf.os)
 .vfp11_veneer  0x280737c4        0x0 /cygdrive/c/ArmToolchain/arm-linux-uclibc/bin/../../lib/libc.a(_ppfs_init.os)
 .vfp11_veneer  0x280737c4        0x0 /cygdrive/c/ArmToolchain/arm-linux-uclibc/bin/../../lib/libc.a(_ppfs_prepargs.os)
 .vfp11_veneer  0x280737c4        0x0 /cygdrive/c/ArmToolchain/arm-linux-uclibc/bin/../../lib/libc.a(_ppfs_setargs.os)
 .vfp11_veneer  0x280737c4        0x0 /cygdrive/c/ArmToolchain/arm-linux-uclibc/bin/../../lib/libc.a(_ppfs_parsespec.os)
 .vfp11_veneer  0x280737c4        0x0 /cygdrive/c/ArmToolchain/arm-linux-uclibc/bin/../../lib/libc.a(vswprintf.os)
 .vfp11_veneer  0x280737c4        0x0 /cygdrive/c/ArmToolchain/arm-linux-uclibc/bin/../../lib/libc.a(vfwprintf.os)
 .vfp11_veneer  0x280737c4        0x0 /cygdrive/c/ArmToolchain/arm-linux-uclibc/bin/../../lib/libc.a(fputws.os)
 .vfp11_veneer  0x280737c4        0x0 /cygdrive/c/ArmToolchain/arm-linux-uclibc/bin/../../lib/libc.a(fputs_unlocked.os)
 .vfp11_veneer  0x280737c4        0x0 /cygdrive/c/ArmToolchain/arm-linux-uclibc/bin/../../lib/libc.a(fwrite_unlocked.os)
 .vfp11_veneer  0x280737c4        0x0 /cygdrive/c/ArmToolchain/arm-linux-uclibc/bin/../../lib/libc.a(fputws_unlocked.os)
 .vfp11_veneer  0x280737c4        0x0 /cygdrive/c/ArmToolchain/arm-linux-uclibc/bin/../../lib/libc.a(memcmp.os)
 .vfp11_veneer  0x280737c4        0x0 /cygdrive/c/ArmToolchain/arm-linux-uclibc/bin/../../lib/libc.a(memcpy.os)
 .vfp11_veneer  0x280737c4        0x0 /cygdrive/c/ArmToolchain/arm-linux-uclibc/bin/../../lib/libc.a(memmove.os)
 .vfp11_veneer  0x280737c4        0x0 /cygdrive/c/ArmToolchain/arm-linux-uclibc/bin/../../lib/libc.a(memset.os)
 .vfp11_veneer  0x280737c4        0x0 /cygdrive/c/ArmToolchain/arm-linux-uclibc/bin/../../lib/libc.a(strcmp.os)
 .vfp11_veneer  0x280737c4        0x0 /cygdrive/c/ArmToolchain/arm-linux-uclibc/bin/../../lib/libc.a(strlen.os)
 .vfp11_veneer  0x280737c4        0x0 /cygdrive/c/ArmToolchain/arm-linux-uclibc/bin/../../lib/libc.a(memchr.os)
 .vfp11_veneer  0x280737c4        0x0 /cygdrive/c/ArmToolchain/arm-linux-uclibc/bin/../../lib/libc.a(strcat.os)
 .vfp11_veneer  0x280737c4        0x0 /cygdrive/c/ArmToolchain/arm-linux-uclibc/bin/../../lib/libc.a(strchr.os)
 .vfp11_veneer  0x280737c4        0x0 /cygdrive/c/ArmToolchain/arm-linux-uclibc/bin/../../lib/libc.a(strcpy.os)
 .vfp11_veneer  0x280737c4        0x0 /cygdrive/c/ArmToolchain/arm-linux-uclibc/bin/../../lib/libc.a(strncpy.os)
 .vfp11_veneer  0x280737c4        0x0 /cygdrive/c/ArmToolchain/arm-linux-uclibc/bin/../../lib/libc.a(strnlen.os)
 .vfp11_veneer  0x280737c4        0x0 /cygdrive/c/ArmToolchain/arm-linux-uclibc/bin/../../lib/libc.a(strrchr.os)
 .vfp11_veneer  0x280737c4        0x0 /cygdrive/c/ArmToolchain/arm-linux-uclibc/bin/../../lib/libc.a(strstr.os)
 .vfp11_veneer  0x280737c4        0x0 /cygdrive/c/ArmToolchain/arm-linux-uclibc/bin/../../lib/libc.a(__glibc_strerror_r.os)
 .vfp11_veneer  0x280737c4        0x0 /cygdrive/c/ArmToolchain/arm-linux-uclibc/bin/../../lib/libc.a(__xpg_strerror_r.os)
 .vfp11_veneer  0x280737c4        0x0 /cygdrive/c/ArmToolchain/arm-linux-uclibc/bin/../../lib/libc.a(_string_syserrmsgs.os)
 .vfp11_veneer  0x280737c4        0x0 /cygdrive/c/ArmToolchain/arm-linux-uclibc/bin/../../lib/libc.a(wcslen.os)
 .vfp11_veneer  0x280737c4        0x0 /cygdrive/c/ArmToolchain/arm-linux-uclibc/bin/../../lib/libc.a(wcsnlen.os)
 .vfp11_veneer  0x280737c4        0x0 /cygdrive/c/ArmToolchain/arm-linux-uclibc/bin/../../lib/libc.a(isatty.os)
 .vfp11_veneer  0x280737c4        0x0 /cygdrive/c/ArmToolchain/arm-linux-uclibc/bin/../../lib/libc.a(tcgetattr.os)
 .vfp11_veneer  0x280737c4        0x0 /cygdrive/c/ArmToolchain/arm-linux-uclibc/bin/../../lib/libc.a(ntop.os)
 .vfp11_veneer  0x280737c4        0x0 /cygdrive/c/ArmToolchain/arm-linux-uclibc/bin/../../lib/libc.a(inet_makeaddr.os)
 .vfp11_veneer  0x280737c4        0x0 /cygdrive/c/ArmToolchain/arm-linux-uclibc/bin/../../lib/libc.a(raise.os)
 .vfp11_veneer  0x280737c4        0x0 /cygdrive/c/ArmToolchain/arm-linux-uclibc/bin/../../lib/libc.a(atol.os)
 .vfp11_veneer  0x280737c4        0x0 /cygdrive/c/ArmToolchain/arm-linux-uclibc/bin/../../lib/libc.a(strtol.os)
 .vfp11_veneer  0x280737c4        0x0 /cygdrive/c/ArmToolchain/arm-linux-uclibc/bin/../../lib/libc.a(_stdlib_strto_l.os)
 .vfp11_veneer  0x280737c4        0x0 /cygdrive/c/ArmToolchain/arm-linux-uclibc/bin/../../lib/libc.a(close.os)
 .vfp11_veneer  0x280737c4        0x0 /cygdrive/c/ArmToolchain/arm-linux-uclibc/bin/../../lib/libc.a(getpid.os)
 .vfp11_veneer  0x280737c4        0x0 /cygdrive/c/ArmToolchain/arm-linux-uclibc/bin/../../lib/libc.a(ioctl.os)
 .vfp11_veneer  0x280737c4        0x0 /cygdrive/c/ArmToolchain/arm-linux-uclibc/bin/../../lib/libc.a(kill.os)
 .vfp11_veneer  0x280737c4        0x0 /cygdrive/c/ArmToolchain/arm-linux-uclibc/bin/../../lib/libc.a(llseek.os)
 .vfp11_veneer  0x280737c4        0x0 /cygdrive/c/ArmToolchain/arm-linux-uclibc/bin/../../lib/libc.a(read.os)
 .vfp11_veneer  0x280737c4        0x0 /cygdrive/c/ArmToolchain/arm-linux-uclibc/bin/../../lib/libc.a(write.os)
 .vfp11_veneer  0x280737c4        0x0 /cygdrive/c/ArmToolchain/arm-linux-uclibc/bin/../../lib/libc.a(btowc.os)
 .vfp11_veneer  0x280737c4        0x0 /cygdrive/c/ArmToolchain/arm-linux-uclibc/bin/../../lib/libc.a(wcrtomb.os)
 .vfp11_veneer  0x280737c4        0x0 /cygdrive/c/ArmToolchain/arm-linux-uclibc/bin/../../lib/libc.a(mbsrtowcs.os)
 .vfp11_veneer  0x280737c4        0x0 /cygdrive/c/ArmToolchain/arm-linux-uclibc/bin/../../lib/libc.a(wcsrtombs.os)
 .vfp11_veneer  0x280737c4        0x0 /cygdrive/c/ArmToolchain/arm-linux-uclibc/bin/../../lib/libc.a(mbsnrtowcs.os)
 .vfp11_veneer  0x280737c4        0x0 /cygdrive/c/ArmToolchain/arm-linux-uclibc/bin/../../lib/libc.a(wcsnrtombs.os)
 .vfp11_veneer  0x280737c4        0x0 /cygdrive/c/ArmToolchain/arm-linux-uclibc/bin/../../lib/libc.a(_WRITE.os)
 .vfp11_veneer  0x280737c4        0x0 /cygdrive/c/ArmToolchain/arm-linux-uclibc/bin/../../lib/libc.a(_fwrite.os)
 .vfp11_veneer  0x280737c4        0x0 /cygdrive/c/ArmToolchain/arm-linux-uclibc/bin/../../lib/libc.a(_trans2w.os)
 .vfp11_veneer  0x280737c4        0x0 /cygdrive/c/ArmToolchain/arm-linux-uclibc/bin/../../lib/libc.a(_load_inttype.os)
 .vfp11_veneer  0x280737c4        0x0 /cygdrive/c/ArmToolchain/arm-linux-uclibc/bin/../../lib/libc.a(_store_inttype.os)
 .vfp11_veneer  0x280737c4        0x0 /cygdrive/c/ArmToolchain/arm-linux-uclibc/bin/../../lib/libc.a(_uintmaxtostr.os)
 .vfp11_veneer  0x280737c4        0x0 /cygdrive/c/ArmToolchain/arm-linux-uclibc/bin/../../lib/libc.a(_fpmaxtostr.os)
 .vfp11_veneer  0x280737c4        0x0 /cygdrive/c/ArmToolchain/arm-linux-uclibc/bin/../../lib/libc.a(_wfwrite.os)
 .vfp11_veneer  0x280737c4        0x0 /cygdrive/c/ArmToolchain/arm-linux-uclibc/bin/../../lib/libc.a(_memcpy.os)
 .vfp11_veneer  0x280737c4        0x0 /cygdrive/c/ArmToolchain/arm-linux-uclibc/bin/../../lib/libc.a(mempcpy.os)
 .vfp11_veneer  0x280737c4        0x0 /cygdrive/c/ArmToolchain/arm-linux-uclibc/bin/../../lib/libc.a(memrchr.os)
 .vfp11_veneer  0x280737c4        0x0 /cygdrive/c/ArmToolchain/arm-linux-uclibc/bin/../../lib/libc.a(wmemcpy.os)
 .vfp11_veneer  0x280737c4        0x0 /cygdrive/c/ArmToolchain/arm-linux-uclibc/bin/../../lib/libc.a(inet_aton.os)
 .vfp11_veneer  0x280737c4        0x0 /cygdrive/c/ArmToolchain/arm-linux-uclibc/bin/../../lib/libc.a(fseeko.os)
 .vfp11_veneer  0x280737c4        0x0 /cygdrive/c/ArmToolchain/arm-linux-uclibc/bin/../../lib/libc.a(fseeko64.os)
 .vfp11_veneer  0x280737c4        0x0 /cygdrive/c/ArmToolchain/arm-linux-uclibc/bin/../../lib/libc.a(_adjust_pos.os)
 .vfp11_veneer  0x280737c4        0x0 /cygdrive/c/ArmToolchain/bin/../lib/gcc/arm-linux-uclibc/4.1.2/libgcc.a(_addsubdf3.o)
 .vfp11_veneer  0x280737c4        0x0 /cygdrive/c/ArmToolchain/bin/../lib/gcc/arm-linux-uclibc/4.1.2/libgcc.a(_muldivdf3.o)
 .vfp11_veneer  0x280737c4        0x0 /cygdrive/c/ArmToolchain/bin/../lib/gcc/arm-linux-uclibc/4.1.2/libgcc.a(_cmpdf2.o)
 .vfp11_veneer  0x280737c4        0x0 /cygdrive/c/ArmToolchain/bin/../lib/gcc/arm-linux-uclibc/4.1.2/libgcc.a(_fixunsdfsi.o)
                0x280737c4                . = ALIGN (0x4)

.interp
 *(.interp)

.hash
 *(.hash)

.gnu.hash
 *(.gnu.hash)

.dynsym
 *(.dynsym)

.dynstr
 *(.dynstr)

.gnu.version
 *(.gnu.version)

.gnu.version_d
 *(.gnu.version_d)

.gnu.version_r
 *(.gnu.version_r)

.rel.init
 *(.rel.init)

.rela.init
 *(.rela.init)

.rel.text
 *(.rel.text .rel.text.* .rel.gnu.linkonce.t.*)

.rela.text
 *(.rela.text .rela.text.* .rela.gnu.linkonce.t.*)

.rel.fini
 *(.rel.fini)

.rela.fini
 *(.rela.fini)

.rel.rodata
 *(.rel.rodata .rel.rodata.* .rel.gnu.linkonce.r.*)

.rela.rodata
 *(.rela.rodata .rela.rodata.* .rela.gnu.linkonce.r.*)

.rel.data.rel.ro
 *(.rel.data.rel.ro* .rel.gnu.linkonce.d.rel.ro.*)

.rela.data.rel.ro
 *(.rela.data.rel.ro* .rela.gnu.linkonce.d.rel.ro.*)

.rel.data
 *(.rel.data .rel.data.* .rel.gnu.linkonce.d.*)

.rela.data
 *(.rela.data .rela.data.* .rela.gnu.linkonce.d.*)

.rel.tdata
 *(.rel.tdata .rel.tdata.* .rel.gnu.linkonce.td.*)

.rela.tdata
 *(.rela.tdata .rela.tdata.* .rela.gnu.linkonce.td.*)

.rel.tbss
 *(.rel.tbss .rel.tbss.* .rel.gnu.linkonce.tb.*)

.rela.tbss
 *(.rela.tbss .rela.tbss.* .rela.gnu.linkonce.tb.*)

.rel.ctors
 *(.rel.ctors)

.rela.ctors
 *(.rela.ctors)

.rel.dtors
 *(.rel.dtors)

.rela.dtors
 *(.rela.dtors)

.rel.got        0x280737c4        0x0
 *(.rel.got)
 .rel.got       0x00000000        0x0 /cygdrive/c/ArmToolchain/bin/../lib/gcc/arm-linux-uclibc/4.1.2/libgcc.a(_divdi3.o)

.rela.got
 *(.rela.got)

.rel.bss
 *(.rel.bss .rel.bss.* .rel.gnu.linkonce.b.*)

.rela.bss
 *(.rela.bss .rela.bss.* .rela.gnu.linkonce.b.*)

.rel.plt
 *(.rel.plt)

.rela.plt
 *(.rela.plt)

.init
 *(.init)

.plt
 *(.plt)

.fini
 *(.fini)
                0x00000000                PROVIDE (__etext, .)
                0x00000000                PROVIDE (_etext, .)
                0x00000000                PROVIDE (etext, .)

.rodata         0x280737c4     0xa578
 *(.rodata .rodata.* .gnu.linkonce.r.*)
 .rodata.str1.4
                0x280737c4      0x60d ../obj/Src/wireless.o
                                0x614 (size before relaxing)
 *fill*         0x28073dd1        0x3 00
 .rodata.str1.4
                0x28073dd4     0x10d1 ../obj/Src/appsetup.o
                               0x11b4 (size before relaxing)
 *fill*         0x28074ea5        0x3 00
 .rodata        0x28074ea8       0xa4 ../obj/Src/appsetup.o
 .rodata.str1.4
                0x28074f4c       0x2b ../obj/Src/ChkOption.o
                                 0x40 (size before relaxing)
 *fill*         0x28074f77        0x1 00
 .rodata.str1.4
                0x28074f78      0x1ce ../obj/Src/Commlib.o
                                0x1ec (size before relaxing)
 *fill*         0x28075146        0x2 00
 .rodata.str1.4
                0x28075148      0x502 ../obj/Src/devicetest.o
                                0x510 (size before relaxing)
 *fill*         0x2807564a        0x2 00
 .rodata.str1.4
                0x2807564c       0x89 ../obj/Src/Display.o
                                 0xb8 (size before relaxing)
 *fill*         0x280756d5        0x3 00
 .rodata.str1.4
                0x280756d8      0x2c9 ../obj/Src/getcard.o
                                0x2e4 (size before relaxing)
 *fill*         0x280759a1        0x3 00
 .rodata        0x280759a4        0x8 ../obj/Src/getcard.o
 .rodata.str1.4
                0x280759ac      0x48a ../obj/Src/main.o
                                0x50c (size before relaxing)
 *fill*         0x28075e36        0x2 00
 .rodata        0x28075e38       0xb8 ../obj/Src/main.o
                0x28075e4c                AppInfo
 .rodata.str1.4
                0x28075ef0       0x10 ../obj/Src/MathLib.o
                                 0x1c (size before relaxing)
 .rodata        0x28075f00       0x14 ../obj/Src/MathLib.o
 .rodata.str1.4
                0x28075f14        0x9 ../obj/Src/New8110_ICC.o
                                  0xc (size before relaxing)
 *fill*         0x28075f1d        0x3 00
 .rodata.str1.4
                0x28075f20       0x51 ../obj/Src/NewPosApi.o
                                 0x70 (size before relaxing)
 *fill*         0x28075f71        0x3 00
 .rodata.str1.4
                0x28075f74      0x5c9 ../obj/Src/opermanage.o
                                0x6d0 (size before relaxing)
 *fill*         0x2807653d        0x3 00
 .rodata        0x28076540       0x1c ../obj/Src/opermanage.o
 .rodata.str1.4
                0x2807655c      0xbbd ../obj/Src/otherfunc.o
                                0xd5c (size before relaxing)
 *fill*         0x28077119        0x3 00
 .rodata        0x2807711c       0xbc ../obj/Src/otherfunc.o
                0x28077128                monthday
 .rodata.str1.4
                0x280771d8      0x72d ../obj/Src/posfiles.o
                                0x844 (size before relaxing)
 *fill*         0x28077905        0x3 00
 .rodata        0x28077908        0x8 ../obj/Src/posfiles.o
 .rodata.str1.4
                0x28077910      0x12f ../obj/Src/PosLib.o
                                0x150 (size before relaxing)
 *fill*         0x28077a3f        0x1 00
 .rodata        0x28077a40       0x30 ../obj/Src/PosLib.o
 .rodata.str1.4
                0x28077a70       0x3b ../obj/Src/posparams.o
                                 0x44 (size before relaxing)
 *fill*         0x28077aab        0x1 00
 .rodata.str1.4
                0x28077aac      0x160 ../obj/Src/pospin.o
                                0x17c (size before relaxing)
 .rodata.str1.4
                0x28077c0c      0x34f ../obj/Src/trancomm.o
                                0x3b0 (size before relaxing)
 *fill*         0x28077f5b        0x1 00
 .rodata        0x28077f5c       0x18 ../obj/Src/trancomm.o
 .rodata.str1.4
                0x28077f74     0x1aba ../obj/Src/tranprint.o
                               0x1c38 (size before relaxing)
 *fill*         0x28079a2e        0x2 00
 .rodata        0x28079a30        0x8 ../obj/Src/tranprint.o
 .rodata.str1.4
                0x28079a38      0xad8 ../obj/Src/tranproc.o
                                0xe74 (size before relaxing)
 .rodata        0x2807a510       0x10 ../obj/Src/tranproc.o
 .rodata.str1.4
                0x2807a520       0xc4 ../obj/Src/m1_card/m1_card_proc.o
                                 0xd0 (size before relaxing)
 .rodata.str1.4
                0x2807a5e4       0xab ../obj/Src/showDebug/showDebug.o
                                 0xcc (size before relaxing)
 *fill*         0x2807a68f        0x1 00
 .rodata        0x2807a690       0xc4 ../obj/Src/m1_tranproc.o
 .rodata.str1.4
                0x2807a754      0x668 ../obj/Src/m1_tranproc.o
                                0x940 (size before relaxing)
 .rodata.str1.4
                0x2807adbc      0x1c4 ../obj/Src/LocalFtp.o
                                0x218 (size before relaxing)
 .rodata        0x2807af80        0xc ../obj/Src/NewTime.o
 .rodata.str1.4
                0x2807af8c      0x29d ../obj/Src/emvtranproc.o
                                0x370 (size before relaxing)
 *fill*         0x2807b229        0x3 00
 .rodata        0x2807b22c       0xfc ../obj/Src/emvtranproc.o
                0x2807b239                g_InputPinLogoBmp
 .rodata.str1.4
                0x2807b328      0x89d ../obj/Src/Menu.o
                                0xb60 (size before relaxing)
 *fill*         0x2807bbc5        0x3 00
 .rodata        0x2807bbc8       0xd0 ../obj/Src/Menu.o
 .rodata.str1.4
                0x2807bc98      0x3b5 ../obj/Src/otherTxn.o
                                0x634 (size before relaxing)
 *fill*         0x2807c04d        0x3 00
 .rodata        0x2807c050       0x78 ../obj/Src/otherTxn.o
 .rodata.str1.4
                0x2807c0c8       0xa7 ../obj/Src/qpbocProc.o
                                0x214 (size before relaxing)
 *fill*         0x2807c16f        0x1 00
 .rodata        0x2807c170       0x10 ../obj/Src/qpbocProc.o
 .rodata.str1.4
                0x2807c180       0x2b ../SDK/lib/libseos.a(dll.o)
                                 0x2c (size before relaxing)
 *fill*         0x2807c1ab        0x1 00
 .rodata        0x2807c1ac       0x20 ../SDK/lib/libseos.a(dll.o)
 .rodata.str1.4
                0x2807c1cc       0x17 ../SDK/lib/libemv.a(emv_core_func.o)
                                 0x24 (size before relaxing)
 *fill*         0x2807c1e3        0x1 00
 .rodata.str1.4
                0x2807c1e4       0x6f ../SDK/lib/libemv.a(emvappselect.o)
                                 0xc4 (size before relaxing)
 *fill*         0x2807c253        0x1 00
 .rodata        0x2807c254       0x10 ../SDK/lib/libemv.a(emvappselect.o)
 .rodata        0x2807c264        0x4 ../SDK/lib/libemv.a(emvcapk.o)
 .rodata.str1.4
                0x2807c268       0x1b ../SDK/lib/libemv.a(emvcomplete.o)
                                 0x38 (size before relaxing)
 *fill*         0x2807c283        0x1 00
 .rodata.str1.4
                0x2807c284        0xb ../SDK/lib/libemv.a(emvcvm.o)
                                 0x1c (size before relaxing)
 .rodata.str1.4
                0x00000000        0x8 ../SDK/lib/libemv.a(emvdte.o)
 *fill*         0x2807c28f        0x1 00
 .rodata.str1.4
                0x2807c290        0x3 ../SDK/lib/libemv.a(emvicc.o)
                                 0x10 (size before relaxing)
 *fill*         0x2807c293        0x1 00
 .rodata.str1.4
                0x2807c294       0x37 ../SDK/lib/libemv.a(emvoda.o)
                                 0x54 (size before relaxing)
 *fill*         0x2807c2cb        0x1 00
 .rodata        0x2807c2cc        0x4 ../SDK/lib/libemv.a(emvoda.o)
 .rodata.str1.4
                0x2807c2d0       0x13 ../SDK/lib/libemv.a(emvpinverify.o)
                                 0x1c (size before relaxing)
 *fill*         0x2807c2e3        0x1 00
 .rodata        0x2807c2e4        0x4 ../SDK/lib/libemv.a(emvpinverify.o)
 .rodata.str1.4
                0x2807c2e8        0xf ../SDK/lib/libemv.a(emvprocrest.o)
                                 0x20 (size before relaxing)
 *fill*         0x2807c2f7        0x1 00
 .rodata.str1.4
                0x2807c2f8        0xd ../SDK/lib/libemv.a(emvpubfunc.o)
                                 0x18 (size before relaxing)
 .rodata        0x2807c305       0x10 ../SDK/lib/libemv.a(emvpubfunc.o)
 *fill*         0x2807c315        0x3 00
 .rodata.str1.4
                0x2807c318        0x6 ../SDK/lib/libemv.a(emvreadappdata.o)
                                 0x1c (size before relaxing)
 *fill*         0x2807c31e        0x2 00
 .rodata.str1.4
                0x2807c320       0x12 ../SDK/lib/libemv.a(emvtac.o)
                                 0x48 (size before relaxing)
 *fill*         0x2807c332        0x2 00
 .rodata.str1.4
                0x2807c334       0x14 ../SDK/lib/libemv.a(emvtermrisk.o)
                                 0x34 (size before relaxing)
 .rodata.str1.4
                0x00000000       0x14 ../SDK/lib/libemv.a(emvtlv.o)
                                  0xc (size before relaxing)
 .rodata        0x2807c348       0x10 ../SDK/lib/libemv.a(qpbocapi.o)
 .rodata.str1.4
                0x2807c358        0xf ../SDK/lib/libemv.a(qpbocapi.o)
                                 0x90 (size before relaxing)
 *fill*         0x2807c367        0x1 00
 .rodata.str1.4
                0x2807c368       0x12 ../SDK/lib/libemv.a(qpboc_funcs.o)
                                 0x88 (size before relaxing)
 *fill*         0x2807c37a        0x2 00
 .rodata.str1.4
                0x2807c37c        0x8 ../SDK/lib/libcrypto.a(perror.o)
                                  0xc (size before relaxing)
 .rodata        0x2807c384       0x2c ../SDK/lib/libcrypto.a(sha1dgst.o)
                0x2807c384                SHA1_version
 .rodata.str1.4
                0x00000000       0x10 ../SDK/lib/libcrypto.a(console.o)
 .rodata.str1.4
                0x2807c3b0       0x4a ../SDK/lib/libcrypto.a(fopen.o)
                                 0x4c (size before relaxing)
 *fill*         0x2807c3fa        0x2 00
 .rodata.str1.4
                0x2807c3fc      0x1a3 ../SDK/lib/libftp.a(ftp.o)
                                0x1ac (size before relaxing)
 *fill*         0x2807c59f        0x1 00
 .rodata        0x2807c5a0       0x10 ../SDK/lib/libftp.a(ftp.o)
 .rodata        0x2807c5b0      0x100 /cygdrive/c/ArmToolchain/bin/../lib/gcc/arm-linux-uclibc/4.1.2/libgcc.a(_clz.o)
                0x2807c5b0                __clz_tab
 .rodata        0x2807c6b0      0x300 /cygdrive/c/ArmToolchain/arm-linux-uclibc/bin/../../lib/libc.a(__C_ctype_b.os)
                0x2807c6b0                __GI___C_ctype_b_data
                0x2807c6b0                __C_ctype_b_data
 .rodata        0x2807c9b0      0x300 /cygdrive/c/ArmToolchain/arm-linux-uclibc/bin/../../lib/libc.a(__C_ctype_tolower.os)
                0x2807c9b0                __GI___C_ctype_tolower_data
                0x2807c9b0                __C_ctype_tolower_data
 .rodata        0x2807ccb0      0x300 /cygdrive/c/ArmToolchain/arm-linux-uclibc/bin/../../lib/libc.a(__C_ctype_toupper.os)
                0x2807ccb0                __GI___C_ctype_toupper_data
                0x2807ccb0                __C_ctype_toupper_data
 .rodata        0x2807cfb0       0x18 /cygdrive/c/ArmToolchain/arm-linux-uclibc/bin/../../lib/libc.a(_stdio.os)
 .rodata.str1.4
                0x2807cfc8       0x10 /cygdrive/c/ArmToolchain/arm-linux-uclibc/bin/../../lib/libc.a(vfprintf.os)
 .rodata        0x2807cfd8       0x14 /cygdrive/c/ArmToolchain/arm-linux-uclibc/bin/../../lib/libc.a(vfprintf.os)
 .rodata        0x2807cfec       0x84 /cygdrive/c/ArmToolchain/arm-linux-uclibc/bin/../../lib/libc.a(_ppfs_parsespec.os)
 .rodata.str1.4
                0x00000000       0x10 /cygdrive/c/ArmToolchain/arm-linux-uclibc/bin/../../lib/libc.a(vfwprintf.os)
 .rodata        0x2807d070       0xa8 /cygdrive/c/ArmToolchain/arm-linux-uclibc/bin/../../lib/libc.a(vfwprintf.os)
 .rodata        0x2807d118        0xe /cygdrive/c/ArmToolchain/arm-linux-uclibc/bin/../../lib/libc.a(__xpg_strerror_r.os)
 *fill*         0x2807d126        0x2 00
 .rodata        0x2807d128      0xb5c /cygdrive/c/ArmToolchain/arm-linux-uclibc/bin/../../lib/libc.a(_string_syserrmsgs.os)
                0x2807d128                _string_syserrmsgs
 .rodata        0x2807dc84       0x14 /cygdrive/c/ArmToolchain/arm-linux-uclibc/bin/../../lib/libc.a(ntop.os)
 .rodata        0x2807dc98       0xa4 /cygdrive/c/ArmToolchain/arm-linux-uclibc/bin/../../lib/libc.a(_fpmaxtostr.os)

.rodata1
 *(.rodata1)

.eh_frame_hdr
 *(.eh_frame_hdr)

.eh_frame
 *(.eh_frame)

.gcc_except_table
 *(.gcc_except_table .gcc_except_table.*)
                0x2807dd3c                . = .

.eh_frame
 *(.eh_frame)

.gcc_except_table
 *(.gcc_except_table .gcc_except_table.*)

.tdata
 *(.tdata .tdata.* .gnu.linkonce.td.*)

.tbss
 *(.tbss .tbss.* .gnu.linkonce.tb.*)
 *(.tcommon)

.preinit_array  0x2807dd3c        0x0
                0x2807dd3c                PROVIDE (__preinit_array_start, .)
 *(.preinit_array)
                0x2807dd3c                PROVIDE (__preinit_array_end, .)

.init_array     0x2807dd3c        0x0
                0x2807dd3c                PROVIDE (__init_array_start, .)
 *(SORT(.init_array.*))
 *(.init_array)
                0x2807dd3c                PROVIDE (__init_array_end, .)

.fini_array     0x2807dd3c        0x0
                0x2807dd3c                PROVIDE (__fini_array_start, .)
 *(.fini_array)
 *(SORT(.fini_array.*))
                0x2807dd3c                PROVIDE (__fini_array_end, .)

.ctors
 *crtbegin.o(.ctors)
 *crtbegin?.o(.ctors)
 *(EXCLUDE_FILE(*crtend?.o *crtend.o) .ctors)
 *(SORT(.ctors.*))
 *(.ctors)

.dtors
 *crtbegin.o(.dtors)
 *crtbegin?.o(.dtors)
 *(EXCLUDE_FILE(*crtend?.o *crtend.o) .dtors)
 *(SORT(.dtors.*))
 *(.dtors)

.jcr
 *(.jcr)

.data.rel.ro
 *(.data.rel.ro.local* .gnu.linkonce.d.rel.ro.local.*)
 *(.data.rel.ro* .gnu.linkonce.d.rel.ro.*)

.dynamic
 *(.dynamic)

.got            0x2807dd3c       0x34
 *(.got.plt)
 .got.plt       0x2807dd3c        0xc /cygdrive/c/ArmToolchain/bin/../lib/gcc/arm-linux-uclibc/4.1.2/libgcc.a(_divdi3.o)
                0x2807dd3c                _GLOBAL_OFFSET_TABLE_
 *(.got)
 .got           0x2807dd48       0x28 /cygdrive/c/ArmToolchain/bin/../lib/gcc/arm-linux-uclibc/4.1.2/libgcc.a(_divdi3.o)
                0x2807dd70                Image__text__Limit = .

.data           0x2807dd70     0x62dc
                0x2807dd70                Image__data__Base = .
                0x2807dd70                __data_start = .
 *(.data .data.* .gnu.linkonce.d.*)
 .data          0x2807dd70        0x0 ../obj/Src/init.o
 .data          0x2807dd70        0x0 ../obj/Src/wireless.o
 .data          0x2807dd70        0x0 ../obj/Src/appsetup.o
 .data          0x2807dd70        0x0 ../obj/Src/ChkOption.o
 .data          0x2807dd70      0xb08 ../obj/Src/Commlib.o
 .data          0x2807e878        0x0 ../obj/Src/devicetest.o
 .data          0x2807e878        0x0 ../obj/Src/Display.o
 .data          0x2807e878        0x0 ../obj/Src/getcard.o
 .data          0x2807e878     0x1784 ../obj/Src/globalvar.o
                0x2807febc                Bmp_Show_LytBalance
                0x2807fc42                Bmp_Show_Balance
                0x2807fdfe                Bmp_Show_AmtName
                0x2807fd80                Bmp_Show_CurrName
                0x2807fb04                Bmp_Show_in_PIN
                0x2807eb4c                sRetErrInfo
                0x2807e87c                sAcqList
                0x2807e878                imif_fd
                0x2807f594                TrTable
 .data          0x2807fffc      0xda0 ../obj/Src/main.o
                0x2807fffc                myParams
                0x28080c5c                logo
 .data          0x28080d9c        0x0 ../obj/Src/MathLib.o
 .data          0x28080d9c        0x0 ../obj/Src/New8110_ICC.o
 .data          0x28080d9c        0x0 ../obj/Src/NewPosApi.o
 .data          0x28080d9c        0x0 ../obj/Src/opermanage.o
 .data          0x28080d9c        0x0 ../obj/Src/otherfunc.o
 .data          0x28080d9c        0x0 ../obj/Src/posfiles.o
 .data          0x28080d9c        0x0 ../obj/Src/PosLib.o
 .data          0x28080d9c        0x0 ../obj/Src/posparams.o
 .data          0x28080d9c        0x0 ../obj/Src/pospin.o
 .data          0x28080d9c        0x4 ../obj/Src/Rs232lib.o
 .data          0x28080da0        0x0 ../obj/Src/trancomm.o
 .data          0x28080da0        0x0 ../obj/Src/tranprint.o
 .data          0x28080da0        0x0 ../obj/Src/tranproc.o
 .data          0x28080da0       0x60 ../obj/Src/m1_card/m1_card_proc.o
 .data          0x28080e00        0x0 ../obj/Src/showDebug/showDebug.o
 .data          0x28080e00        0x0 ../obj/Src/m1_tranproc.o
 .data          0x28080e00        0x0 ../obj/Src/LocalFtp.o
 .data          0x28080e00        0x0 ../obj/Src/NewTime.o
 .data          0x28080e00      0x10c ../obj/Src/st8583.o
                0x28080e00                glMsg0
                0x28080e08                glData0
 .data          0x28080f0c       0x84 ../obj/Src/emvtranproc.o
                0x28080f18                gl_SupEn
                0x28080f10                gl_TmSupLang
                0x28080f0c                gl_FirstRunSelApp
 .data          0x28080f90        0x0 ../obj/Src/emvtrantest.o
 .data          0x28080f90        0x0 ../obj/Src/Menu.o
 .data          0x28080f90        0x0 ../obj/Src/otherTxn.o
 .data          0x28080f90        0x0 ../obj/Src/pack8583.o
 .data          0x28080f90       0x5c ../obj/Src/qpbocProc.o
 .data          0x28080fec        0x4 ../SDK/lib/libseos.a(dll.o)
                0x28080fec                pFunc
 .data          0x28080ff0        0x0 ../SDK/lib/libemv.a(emv_core_func.o)
 .data          0x28080ff0        0x0 ../SDK/lib/libemv.a(emvaidlist.o)
 .data          0x28080ff0        0x0 ../SDK/lib/libemv.a(emvappselect.o)
 .data          0x28080ff0        0x0 ../SDK/lib/libemv.a(emvcandapp.o)
 .data          0x28080ff0        0x0 ../SDK/lib/libemv.a(emvcapk.o)
 .data          0x28080ff0        0x0 ../SDK/lib/libemv.a(emvcomplete.o)
 .data          0x28080ff0        0x0 ../SDK/lib/libemv.a(emvconfigure.o)
 .data          0x28080ff0        0x0 ../SDK/lib/libemv.a(emvcvm.o)
 .data          0x28080ff0        0x0 ../SDK/lib/libemv.a(emvddflist.o)
 .data          0x28080ff0        0x0 ../SDK/lib/libemv.a(emvdol.o)
 .data          0x28080ff0      0x980 ../SDK/lib/libemv.a(emvdte.o)
 .data          0x28081970        0x0 ../SDK/lib/libemv.a(emvicc.o)
 .data          0x28081970        0x0 ../SDK/lib/libemv.a(emvoda.o)
 .data          0x28081970        0x0 ../SDK/lib/libemv.a(emvodalist.o)
 .data          0x28081970        0x0 ../SDK/lib/libemv.a(emvpinverify.o)
 .data          0x28081970        0x0 ../SDK/lib/libemv.a(emvprocrest.o)
 .data          0x28081970        0x0 ../SDK/lib/libemv.a(emvpubfunc.o)
 .data          0x28081970        0x0 ../SDK/lib/libemv.a(emvreadappdata.o)
 .data          0x28081970        0x0 ../SDK/lib/libemv.a(emvtac.o)
 .data          0x28081970        0x0 ../SDK/lib/libemv.a(emvtermrisk.o)
 .data          0x28081970        0x0 ../SDK/lib/libemv.a(emvtlv.o)
 .data          0x28081970        0x0 ../SDK/lib/libemv.a(qpbocapi.o)
 .data          0x28081970        0x0 ../SDK/lib/libemv.a(EmvRsa.o)
 .data          0x28081970       0x40 ../SDK/lib/libemv.a(EmvSHA1.o)
 .data          0x280819b0        0x0 ../SDK/lib/libemv.a(qpboc_funcs.o)
 .data          0x280819b0        0x0 ../SDK/lib/libcrypto.a(perror.o)
 .data          0x280819b0        0x0 ../SDK/lib/libcrypto.a(sha1_one.o)
 .data          0x280819b0        0x0 ../SDK/lib/libcrypto.a(sha1dgst.o)
 .data          0x280819b0        0x0 ../SDK/lib/libcrypto.a(fprintf.o)
 .data          0x280819b0        0x0 ../SDK/lib/libcrypto.a(write.o)
 .data          0x280819b0       0x9c ../SDK/lib/libcrypto.a(console.o)
 .data          0x28081a4c        0x0 ../SDK/lib/libcrypto.a(mem_clr.o)
 .data          0x28081a4c     0x246c ../SDK/lib/libcrypto.a(fopen.o)
 .data          0x28083eb8        0x0 ../SDK/lib/libcrypto.a(open.o)
 .data          0x28083eb8        0x0 ../SDK/lib/liballoc.a(memmgr.o)
 .data          0x28083eb8        0x0 ../SDK/lib/libftp.a(ftp.o)
 .data          0x28083eb8        0x0 ../SDK/lib/libftp.a(net.o)
 .data          0x28083eb8        0x0 /cygdrive/c/ArmToolchain/bin/../lib/gcc/arm-linux-uclibc/4.1.2/libgcc.a(_udivsi3.o)
 .data          0x28083eb8        0x0 /cygdrive/c/ArmToolchain/bin/../lib/gcc/arm-linux-uclibc/4.1.2/libgcc.a(_divsi3.o)
 .data          0x28083eb8        0x0 /cygdrive/c/ArmToolchain/bin/../lib/gcc/arm-linux-uclibc/4.1.2/libgcc.a(_umodsi3.o)
 .data          0x28083eb8        0x0 /cygdrive/c/ArmToolchain/bin/../lib/gcc/arm-linux-uclibc/4.1.2/libgcc.a(_modsi3.o)
 .data          0x28083eb8        0x0 /cygdrive/c/ArmToolchain/bin/../lib/gcc/arm-linux-uclibc/4.1.2/libgcc.a(_dvmd_lnx.o)
 .data          0x28083eb8        0x0 /cygdrive/c/ArmToolchain/bin/../lib/gcc/arm-linux-uclibc/4.1.2/libgcc.a(_divdi3.o)
 .data          0x28083eb8        0x0 /cygdrive/c/ArmToolchain/bin/../lib/gcc/arm-linux-uclibc/4.1.2/libgcc.a(_clz.o)
 .data          0x28083eb8        0x0 /cygdrive/c/ArmToolchain/arm-linux-uclibc/bin/../../lib/libc.a(tolower.os)
 .data          0x28083eb8        0x0 /cygdrive/c/ArmToolchain/arm-linux-uclibc/bin/../../lib/libc.a(toupper.os)
 .data          0x28083eb8        0x0 /cygdrive/c/ArmToolchain/arm-linux-uclibc/bin/../../lib/libc.a(__C_ctype_b.os)
 .data.rel      0x28083eb8        0x8 /cygdrive/c/ArmToolchain/arm-linux-uclibc/bin/../../lib/libc.a(__C_ctype_b.os)
                0x28083ebc                __GI___ctype_b
                0x28083ebc                __ctype_b
                0x28083eb8                __GI___C_ctype_b
                0x28083eb8                __C_ctype_b
 .data          0x28083ec0        0x0 /cygdrive/c/ArmToolchain/arm-linux-uclibc/bin/../../lib/libc.a(__C_ctype_tolower.os)
 .data.rel      0x28083ec0        0x8 /cygdrive/c/ArmToolchain/arm-linux-uclibc/bin/../../lib/libc.a(__C_ctype_tolower.os)
                0x28083ec0                __C_ctype_tolower
                0x28083ec4                __GI___ctype_tolower
                0x28083ec0                __GI___C_ctype_tolower
                0x28083ec4                __ctype_tolower
 .data          0x28083ec8        0x0 /cygdrive/c/ArmToolchain/arm-linux-uclibc/bin/../../lib/libc.a(__C_ctype_toupper.os)
 .data.rel      0x28083ec8        0x8 /cygdrive/c/ArmToolchain/arm-linux-uclibc/bin/../../lib/libc.a(__C_ctype_toupper.os)
                0x28083ecc                __GI___ctype_toupper
                0x28083ec8                __GI___C_ctype_toupper
                0x28083ecc                __ctype_toupper
                0x28083ec8                __C_ctype_toupper
 .data          0x28083ed0        0x0 /cygdrive/c/ArmToolchain/arm-linux-uclibc/bin/../../lib/libc.a(printf.os)
 .data          0x28083ed0        0x0 /cygdrive/c/ArmToolchain/arm-linux-uclibc/bin/../../lib/libc.a(vsprintf.os)
 .data          0x28083ed0        0x0 /cygdrive/c/ArmToolchain/arm-linux-uclibc/bin/../../lib/libc.a(snprintf.os)
 .data          0x28083ed0        0x0 /cygdrive/c/ArmToolchain/arm-linux-uclibc/bin/../../lib/libc.a(sprintf.os)
 .data          0x28083ed0        0x0 /cygdrive/c/ArmToolchain/arm-linux-uclibc/bin/../../lib/libc.a(vsnprintf.os)
 .data          0x28083ed0       0x34 /cygdrive/c/ArmToolchain/arm-linux-uclibc/bin/../../lib/libc.a(_stdio.os)
                0x28083f00                _stdio_user_locking
                0x28083ed0                _stdio_openlist_add_lock
                0x28083ee8                _stdio_openlist_del_lock
 .data.rel.local
                0x28083f04       0x18 /cygdrive/c/ArmToolchain/arm-linux-uclibc/bin/../../lib/libc.a(_stdio.os)
                0x28083f08                stdout
                0x28083f18                _stdio_openlist
                0x28083f10                __stdin
                0x28083f04                stdin
                0x28083f0c                stderr
                0x28083f14                __stdout
 .data.rel      0x28083f1c      0x12c /cygdrive/c/ArmToolchain/arm-linux-uclibc/bin/../../lib/libc.a(_stdio.os)
 .data          0x28084048        0x0 /cygdrive/c/ArmToolchain/arm-linux-uclibc/bin/../../lib/libc.a(_wcommit.os)
 .data          0x28084048        0x0 /cygdrive/c/ArmToolchain/arm-linux-uclibc/bin/../../lib/libc.a(_cs_funcs.os)
 .data          0x28084048        0x0 /cygdrive/c/ArmToolchain/arm-linux-uclibc/bin/../../lib/libc.a(vfprintf.os)
 .data          0x28084048        0x0 /cygdrive/c/ArmToolchain/arm-linux-uclibc/bin/../../lib/libc.a(_ppfs_init.os)
 .data          0x28084048        0x0 /cygdrive/c/ArmToolchain/arm-linux-uclibc/bin/../../lib/libc.a(_ppfs_prepargs.os)
 .data          0x28084048        0x0 /cygdrive/c/ArmToolchain/arm-linux-uclibc/bin/../../lib/libc.a(_ppfs_setargs.os)
 .data          0x28084048        0x0 /cygdrive/c/ArmToolchain/arm-linux-uclibc/bin/../../lib/libc.a(_ppfs_parsespec.os)
 .data.rel.local
                0x28084048        0x4 /cygdrive/c/ArmToolchain/arm-linux-uclibc/bin/../../lib/libc.a(_ppfs_parsespec.os)
                0x28084048                _custom_printf_spec
 .data          0x2808404c        0x0 /cygdrive/c/ArmToolchain/arm-linux-uclibc/bin/../../lib/libc.a(vswprintf.os)
 .data          0x2808404c        0x0 /cygdrive/c/ArmToolchain/arm-linux-uclibc/bin/../../lib/libc.a(vfwprintf.os)
 .data          0x2808404c        0x0 /cygdrive/c/ArmToolchain/arm-linux-uclibc/bin/../../lib/libc.a(fputws.os)
 .data          0x2808404c        0x0 /cygdrive/c/ArmToolchain/arm-linux-uclibc/bin/../../lib/libc.a(fputs_unlocked.os)
 .data          0x2808404c        0x0 /cygdrive/c/ArmToolchain/arm-linux-uclibc/bin/../../lib/libc.a(fwrite_unlocked.os)
 .data          0x2808404c        0x0 /cygdrive/c/ArmToolchain/arm-linux-uclibc/bin/../../lib/libc.a(fputws_unlocked.os)
 .data          0x2808404c        0x0 /cygdrive/c/ArmToolchain/arm-linux-uclibc/bin/../../lib/libc.a(memcmp.os)
 .data          0x2808404c        0x0 /cygdrive/c/ArmToolchain/arm-linux-uclibc/bin/../../lib/libc.a(memcpy.os)
 .data          0x2808404c        0x0 /cygdrive/c/ArmToolchain/arm-linux-uclibc/bin/../../lib/libc.a(memmove.os)
 .data          0x2808404c        0x0 /cygdrive/c/ArmToolchain/arm-linux-uclibc/bin/../../lib/libc.a(memset.os)
 .data          0x2808404c        0x0 /cygdrive/c/ArmToolchain/arm-linux-uclibc/bin/../../lib/libc.a(strcmp.os)
 .data          0x2808404c        0x0 /cygdrive/c/ArmToolchain/arm-linux-uclibc/bin/../../lib/libc.a(strlen.os)
 .data          0x2808404c        0x0 /cygdrive/c/ArmToolchain/arm-linux-uclibc/bin/../../lib/libc.a(memchr.os)
 .data          0x2808404c        0x0 /cygdrive/c/ArmToolchain/arm-linux-uclibc/bin/../../lib/libc.a(strcat.os)
 .data          0x2808404c        0x0 /cygdrive/c/ArmToolchain/arm-linux-uclibc/bin/../../lib/libc.a(strchr.os)
 .data          0x2808404c        0x0 /cygdrive/c/ArmToolchain/arm-linux-uclibc/bin/../../lib/libc.a(strcpy.os)
 .data          0x2808404c        0x0 /cygdrive/c/ArmToolchain/arm-linux-uclibc/bin/../../lib/libc.a(strncpy.os)
 .data          0x2808404c        0x0 /cygdrive/c/ArmToolchain/arm-linux-uclibc/bin/../../lib/libc.a(strnlen.os)
 .data          0x2808404c        0x0 /cygdrive/c/ArmToolchain/arm-linux-uclibc/bin/../../lib/libc.a(strrchr.os)
 .data          0x2808404c        0x0 /cygdrive/c/ArmToolchain/arm-linux-uclibc/bin/../../lib/libc.a(strstr.os)
 .data          0x2808404c        0x0 /cygdrive/c/ArmToolchain/arm-linux-uclibc/bin/../../lib/libc.a(__glibc_strerror_r.os)
 .data          0x2808404c        0x0 /cygdrive/c/ArmToolchain/arm-linux-uclibc/bin/../../lib/libc.a(__xpg_strerror_r.os)
 .data          0x2808404c        0x0 /cygdrive/c/ArmToolchain/arm-linux-uclibc/bin/../../lib/libc.a(_string_syserrmsgs.os)
 .data          0x2808404c        0x0 /cygdrive/c/ArmToolchain/arm-linux-uclibc/bin/../../lib/libc.a(wcslen.os)
 .data          0x2808404c        0x0 /cygdrive/c/ArmToolchain/arm-linux-uclibc/bin/../../lib/libc.a(wcsnlen.os)
 .data          0x2808404c        0x0 /cygdrive/c/ArmToolchain/arm-linux-uclibc/bin/../../lib/libc.a(isatty.os)
 .data          0x2808404c        0x0 /cygdrive/c/ArmToolchain/arm-linux-uclibc/bin/../../lib/libc.a(tcgetattr.os)
 .data          0x2808404c        0x0 /cygdrive/c/ArmToolchain/arm-linux-uclibc/bin/../../lib/libc.a(ntop.os)
 .data          0x2808404c        0x0 /cygdrive/c/ArmToolchain/arm-linux-uclibc/bin/../../lib/libc.a(inet_makeaddr.os)
 .data          0x2808404c        0x0 /cygdrive/c/ArmToolchain/arm-linux-uclibc/bin/../../lib/libc.a(raise.os)
 .data          0x2808404c        0x0 /cygdrive/c/ArmToolchain/arm-linux-uclibc/bin/../../lib/libc.a(atol.os)
 .data          0x2808404c        0x0 /cygdrive/c/ArmToolchain/arm-linux-uclibc/bin/../../lib/libc.a(strtol.os)
 .data          0x2808404c        0x0 /cygdrive/c/ArmToolchain/arm-linux-uclibc/bin/../../lib/libc.a(_stdlib_strto_l.os)
 .data          0x2808404c        0x0 /cygdrive/c/ArmToolchain/arm-linux-uclibc/bin/../../lib/libc.a(close.os)
 .data          0x2808404c        0x0 /cygdrive/c/ArmToolchain/arm-linux-uclibc/bin/../../lib/libc.a(getpid.os)
 .data          0x2808404c        0x0 /cygdrive/c/ArmToolchain/arm-linux-uclibc/bin/../../lib/libc.a(ioctl.os)
 .data          0x2808404c        0x0 /cygdrive/c/ArmToolchain/arm-linux-uclibc/bin/../../lib/libc.a(kill.os)
 .data          0x2808404c        0x0 /cygdrive/c/ArmToolchain/arm-linux-uclibc/bin/../../lib/libc.a(llseek.os)
 .data          0x2808404c        0x0 /cygdrive/c/ArmToolchain/arm-linux-uclibc/bin/../../lib/libc.a(read.os)
 .data          0x2808404c        0x0 /cygdrive/c/ArmToolchain/arm-linux-uclibc/bin/../../lib/libc.a(write.os)
 .data          0x2808404c        0x0 /cygdrive/c/ArmToolchain/arm-linux-uclibc/bin/../../lib/libc.a(btowc.os)
 .data          0x2808404c        0x0 /cygdrive/c/ArmToolchain/arm-linux-uclibc/bin/../../lib/libc.a(wcrtomb.os)
 .data          0x2808404c        0x0 /cygdrive/c/ArmToolchain/arm-linux-uclibc/bin/../../lib/libc.a(mbsrtowcs.os)
 .data          0x2808404c        0x0 /cygdrive/c/ArmToolchain/arm-linux-uclibc/bin/../../lib/libc.a(wcsrtombs.os)
 .data          0x2808404c        0x0 /cygdrive/c/ArmToolchain/arm-linux-uclibc/bin/../../lib/libc.a(mbsnrtowcs.os)
 .data          0x2808404c        0x0 /cygdrive/c/ArmToolchain/arm-linux-uclibc/bin/../../lib/libc.a(wcsnrtombs.os)
 .data          0x2808404c        0x0 /cygdrive/c/ArmToolchain/arm-linux-uclibc/bin/../../lib/libc.a(_WRITE.os)
 .data          0x2808404c        0x0 /cygdrive/c/ArmToolchain/arm-linux-uclibc/bin/../../lib/libc.a(_fwrite.os)
 .data          0x2808404c        0x0 /cygdrive/c/ArmToolchain/arm-linux-uclibc/bin/../../lib/libc.a(_trans2w.os)
 .data          0x2808404c        0x0 /cygdrive/c/ArmToolchain/arm-linux-uclibc/bin/../../lib/libc.a(_load_inttype.os)
 .data          0x2808404c        0x0 /cygdrive/c/ArmToolchain/arm-linux-uclibc/bin/../../lib/libc.a(_store_inttype.os)
 .data          0x2808404c        0x0 /cygdrive/c/ArmToolchain/arm-linux-uclibc/bin/../../lib/libc.a(_uintmaxtostr.os)
 .data          0x2808404c        0x0 /cygdrive/c/ArmToolchain/arm-linux-uclibc/bin/../../lib/libc.a(_fpmaxtostr.os)
 .data          0x2808404c        0x0 /cygdrive/c/ArmToolchain/arm-linux-uclibc/bin/../../lib/libc.a(_wfwrite.os)
 .data          0x2808404c        0x0 /cygdrive/c/ArmToolchain/arm-linux-uclibc/bin/../../lib/libc.a(_memcpy.os)
 .data          0x2808404c        0x0 /cygdrive/c/ArmToolchain/arm-linux-uclibc/bin/../../lib/libc.a(mempcpy.os)
 .data          0x2808404c        0x0 /cygdrive/c/ArmToolchain/arm-linux-uclibc/bin/../../lib/libc.a(memrchr.os)
 .data          0x2808404c        0x0 /cygdrive/c/ArmToolchain/arm-linux-uclibc/bin/../../lib/libc.a(wmemcpy.os)
 .data          0x2808404c        0x0 /cygdrive/c/ArmToolchain/arm-linux-uclibc/bin/../../lib/libc.a(inet_aton.os)
 .data          0x2808404c        0x0 /cygdrive/c/ArmToolchain/arm-linux-uclibc/bin/../../lib/libc.a(fseeko.os)
 .data          0x2808404c        0x0 /cygdrive/c/ArmToolchain/arm-linux-uclibc/bin/../../lib/libc.a(fseeko64.os)
 .data          0x2808404c        0x0 /cygdrive/c/ArmToolchain/arm-linux-uclibc/bin/../../lib/libc.a(_adjust_pos.os)
 .data          0x2808404c        0x0 /cygdrive/c/ArmToolchain/bin/../lib/gcc/arm-linux-uclibc/4.1.2/libgcc.a(_addsubdf3.o)
 .data          0x2808404c        0x0 /cygdrive/c/ArmToolchain/bin/../lib/gcc/arm-linux-uclibc/4.1.2/libgcc.a(_muldivdf3.o)
 .data          0x2808404c        0x0 /cygdrive/c/ArmToolchain/bin/../lib/gcc/arm-linux-uclibc/4.1.2/libgcc.a(_cmpdf2.o)
 .data          0x2808404c        0x0 /cygdrive/c/ArmToolchain/bin/../lib/gcc/arm-linux-uclibc/4.1.2/libgcc.a(_fixunsdfsi.o)
 *(.gnu.linkonce.d.*personality*)

.data1
 *(.data1)
                0x2808404c                _edata = .
                0x2808404c                PROVIDE (edata, .)
                0x2808404c                __bss_start = .
                0x2808404c                __bss_start__ = .
                0x2808404c                Image__bss__ZI__Base = .

.bss            0x2808404c    0xa4470
 *(.dynbss)
 *(.bss .bss.* .gnu.linkonce.b.*)
 .bss           0x2808404c        0x0 ../obj/Src/init.o
 .bss           0x2808404c        0x0 ../obj/Src/wireless.o
 .bss           0x2808404c        0x0 ../obj/Src/appsetup.o
 .bss           0x2808404c        0x0 ../obj/Src/ChkOption.o
 .bss           0x2808404c     0x1060 ../obj/Src/Commlib.o
 .bss           0x280850ac        0x0 ../obj/Src/devicetest.o
 .bss           0x280850ac        0x0 ../obj/Src/Display.o
 .bss           0x280850ac        0x0 ../obj/Src/getcard.o
 .bss           0x280850ac     0xc994 ../obj/Src/globalvar.o
                0x280868e0                stM1EnrichTotal
                0x28085c68                BackPosCom
                0x280912c4                tEMVCallBackFunc
                0x28091a0c                gszParamFileName
                0x28086820                stTotal
                0x2808f778                gstYktEnrichLog
                0x28090874                stTemp
                0x28086980                stLimitTotal
                0x280912f8                dial_stat
                0x2808eeb4                stPosParam
                0x28091308                glTermAidList
                0x2808f774                glbEpp
                0x2808f870                usSendPacketLen
                0x28086998                operStrc
                0x28090074                sRecvPacketBuff
                0x2808f874                sSendPacketBuff
                0x2809178c                gstPosCapability
                0x28091788                glTermAidNum
                0x2808f86c                iPsam_fd
                0x280850ac                icc_fd
                0x280850b0                PosCom
                0x2808717c                stTransCtrl
                0x28091290                tConfig
                0x280917a8                gstCurCommCfg
                0x2808f872                usRecvPacketLen
                0x28091168                tEMVCoreInit
 .bss           0x28091a40    0x80000 ../obj/Src/main.o
 .bss           0x28111a40        0x0 ../obj/Src/MathLib.o
 .bss           0x28111a40        0x0 ../obj/Src/New8110_ICC.o
 .bss           0x28111a40        0x0 ../obj/Src/NewPosApi.o
 .bss           0x28111a40        0x0 ../obj/Src/opermanage.o
 .bss           0x28111a40        0x0 ../obj/Src/otherfunc.o
 .bss           0x28111a40        0x0 ../obj/Src/posfiles.o
 .bss           0x28111a40        0x1 ../obj/Src/PosLib.o
 *fill*         0x28111a41        0x3 00
 .bss           0x28111a44      0x198 ../obj/Src/posparams.o
 .bss           0x28111bdc        0x0 ../obj/Src/pospin.o
 .bss           0x28111bdc        0x0 ../obj/Src/Rs232lib.o
 .bss           0x28111bdc        0x0 ../obj/Src/trancomm.o
 .bss           0x28111bdc        0x0 ../obj/Src/tranprint.o
 .bss           0x28111bdc       0x20 ../obj/Src/tranproc.o
 .bss           0x28111bfc        0x4 ../obj/Src/m1_card/m1_card_proc.o
 .bss           0x28111c00        0x0 ../obj/Src/showDebug/showDebug.o
 .bss           0x28111c00        0x0 ../obj/Src/m1_tranproc.o
 .bss           0x28111c00      0x878 ../obj/Src/LocalFtp.o
 .bss           0x28112478       0x2c ../obj/Src/NewTime.o
 .bss           0x281124a4      0xda8 ../obj/Src/st8583.o
                0x281124a4                glSendPack
                0x28112b78                glRecvPack
 .bss           0x2811324c     0x1b34 ../obj/Src/emvtranproc.o
                0x28113250                gstIccPrintData
                0x2811324c                gl_SupCN
 .bss           0x28114d80        0x0 ../obj/Src/emvtrantest.o
 .bss           0x28114d80        0x0 ../obj/Src/Menu.o
 .bss           0x28114d80        0x0 ../obj/Src/otherTxn.o
 .bss           0x28114d80        0x0 ../obj/Src/pack8583.o
 .bss           0x28114d80        0x0 ../obj/Src/qpbocProc.o
 .bss           0x28114d80      0x328 ../SDK/lib/libseos.a(dll.o)
                0x28114e0c                CallApp
                0x28114d80                Func
 .bss           0x281150a8      0xcf4 ../SDK/lib/libemv.a(emv_core_func.o)
 .bss           0x28115d9c     0x4a04 ../SDK/lib/libemv.a(emvaidlist.o)
 .bss           0x2811a7a0        0x4 ../SDK/lib/libemv.a(emvappselect.o)
 .bss           0x2811a7a4     0x2d88 ../SDK/lib/libemv.a(emvcandapp.o)
 .bss           0x2811d52c     0x4704 ../SDK/lib/libemv.a(emvcapk.o)
 .bss           0x28121c30        0x0 ../SDK/lib/libemv.a(emvcomplete.o)
 .bss           0x28121c30       0x40 ../SDK/lib/libemv.a(emvconfigure.o)
 .bss           0x28121c70        0x0 ../SDK/lib/libemv.a(emvcvm.o)
 .bss           0x28121c70      0x284 ../SDK/lib/libemv.a(emvddflist.o)
 .bss           0x28121ef4        0x0 ../SDK/lib/libemv.a(emvdol.o)
 .bss           0x28121ef4     0x2340 ../SDK/lib/libemv.a(emvdte.o)
 .bss           0x28124234        0x8 ../SDK/lib/libemv.a(emvicc.o)
                0x28124234                __ICCARD_EXCHANGE_APDU
 .bss           0x2812423c        0x0 ../SDK/lib/libemv.a(emvoda.o)
 .bss           0x2812423c     0x2084 ../SDK/lib/libemv.a(emvodalist.o)
 .bss           0x281262c0        0x0 ../SDK/lib/libemv.a(emvpinverify.o)
 .bss           0x281262c0        0x0 ../SDK/lib/libemv.a(emvprocrest.o)
 .bss           0x281262c0        0x0 ../SDK/lib/libemv.a(emvpubfunc.o)
 .bss           0x281262c0        0x0 ../SDK/lib/libemv.a(emvreadappdata.o)
 .bss           0x281262c0        0x0 ../SDK/lib/libemv.a(emvtac.o)
 .bss           0x281262c0        0x0 ../SDK/lib/libemv.a(emvtermrisk.o)
 .bss           0x281262c0        0x0 ../SDK/lib/libemv.a(emvtlv.o)
 .bss           0x281262c0       0x28 ../SDK/lib/libemv.a(qpbocapi.o)
 .bss           0x281262e8        0x0 ../SDK/lib/libemv.a(EmvRsa.o)
 .bss           0x281262e8        0x0 ../SDK/lib/libemv.a(EmvSHA1.o)
 .bss           0x281262e8        0x4 ../SDK/lib/libemv.a(qpboc_funcs.o)
 .bss           0x281262ec        0x4 ../SDK/lib/libcrypto.a(perror.o)
 .bss           0x281262f0       0x14 ../SDK/lib/libcrypto.a(sha1_one.o)
 .bss           0x28126304        0x0 ../SDK/lib/libcrypto.a(sha1dgst.o)
 .bss           0x28126304        0x0 ../SDK/lib/libcrypto.a(fprintf.o)
 .bss           0x28126304        0x0 ../SDK/lib/libcrypto.a(write.o)
 .bss           0x28126304        0xc ../SDK/lib/libcrypto.a(console.o)
                0x28126304                stdio_devices
 .bss           0x28126310        0x1 ../SDK/lib/libcrypto.a(mem_clr.o)
                0x28126310                cleanse_ctr
 *fill*         0x28126311        0x3 00
 .bss           0x28126314        0x4 ../SDK/lib/libcrypto.a(fopen.o)
 .bss           0x28126318        0x0 ../SDK/lib/libcrypto.a(open.o)
 .bss           0x28126318        0x8 ../SDK/lib/liballoc.a(memmgr.o)
 .bss           0x28126320        0x0 ../SDK/lib/libftp.a(ftp.o)
 .bss           0x28126320        0x0 ../SDK/lib/libftp.a(net.o)
 .bss           0x28126320        0x0 /cygdrive/c/ArmToolchain/bin/../lib/gcc/arm-linux-uclibc/4.1.2/libgcc.a(_udivsi3.o)
 .bss           0x28126320        0x0 /cygdrive/c/ArmToolchain/bin/../lib/gcc/arm-linux-uclibc/4.1.2/libgcc.a(_divsi3.o)
 .bss           0x28126320        0x0 /cygdrive/c/ArmToolchain/bin/../lib/gcc/arm-linux-uclibc/4.1.2/libgcc.a(_umodsi3.o)
 .bss           0x28126320        0x0 /cygdrive/c/ArmToolchain/bin/../lib/gcc/arm-linux-uclibc/4.1.2/libgcc.a(_modsi3.o)
 .bss           0x28126320        0x0 /cygdrive/c/ArmToolchain/bin/../lib/gcc/arm-linux-uclibc/4.1.2/libgcc.a(_dvmd_lnx.o)
 .bss           0x28126320        0x0 /cygdrive/c/ArmToolchain/bin/../lib/gcc/arm-linux-uclibc/4.1.2/libgcc.a(_divdi3.o)
 .bss           0x28126320        0x0 /cygdrive/c/ArmToolchain/bin/../lib/gcc/arm-linux-uclibc/4.1.2/libgcc.a(_clz.o)
 .bss           0x28126320        0x0 /cygdrive/c/ArmToolchain/arm-linux-uclibc/bin/../../lib/libc.a(tolower.os)
 .bss           0x28126320        0x0 /cygdrive/c/ArmToolchain/arm-linux-uclibc/bin/../../lib/libc.a(toupper.os)
 .bss           0x28126320        0x0 /cygdrive/c/ArmToolchain/arm-linux-uclibc/bin/../../lib/libc.a(__C_ctype_b.os)
 .bss           0x28126320        0x0 /cygdrive/c/ArmToolchain/arm-linux-uclibc/bin/../../lib/libc.a(__C_ctype_tolower.os)
 .bss           0x28126320        0x0 /cygdrive/c/ArmToolchain/arm-linux-uclibc/bin/../../lib/libc.a(__C_ctype_toupper.os)
 .bss           0x28126320        0x0 /cygdrive/c/ArmToolchain/arm-linux-uclibc/bin/../../lib/libc.a(printf.os)
 .bss           0x28126320        0x0 /cygdrive/c/ArmToolchain/arm-linux-uclibc/bin/../../lib/libc.a(vsprintf.os)
 .bss           0x28126320        0x0 /cygdrive/c/ArmToolchain/arm-linux-uclibc/bin/../../lib/libc.a(snprintf.os)
 .bss           0x28126320        0x0 /cygdrive/c/ArmToolchain/arm-linux-uclibc/bin/../../lib/libc.a(sprintf.os)
 .bss           0x28126320        0x0 /cygdrive/c/ArmToolchain/arm-linux-uclibc/bin/../../lib/libc.a(vsnprintf.os)
 .bss           0x28126320     0x2008 /cygdrive/c/ArmToolchain/arm-linux-uclibc/bin/../../lib/libc.a(_stdio.os)
                0x28126320                _stdio_openlist_use_count
                0x28126324                _stdio_openlist_del_count
 .bss           0x28128328        0x0 /cygdrive/c/ArmToolchain/arm-linux-uclibc/bin/../../lib/libc.a(_wcommit.os)
 .bss           0x28128328        0x0 /cygdrive/c/ArmToolchain/arm-linux-uclibc/bin/../../lib/libc.a(_cs_funcs.os)
 .bss           0x28128328        0x0 /cygdrive/c/ArmToolchain/arm-linux-uclibc/bin/../../lib/libc.a(vfprintf.os)
 .bss           0x28128328        0x0 /cygdrive/c/ArmToolchain/arm-linux-uclibc/bin/../../lib/libc.a(_ppfs_init.os)
 .bss           0x28128328        0x0 /cygdrive/c/ArmToolchain/arm-linux-uclibc/bin/../../lib/libc.a(_ppfs_prepargs.os)
 .bss           0x28128328        0x0 /cygdrive/c/ArmToolchain/arm-linux-uclibc/bin/../../lib/libc.a(_ppfs_setargs.os)
 .bss           0x28128328        0xa /cygdrive/c/ArmToolchain/arm-linux-uclibc/bin/../../lib/libc.a(_ppfs_parsespec.os)
 .bss           0x28128332        0x0 /cygdrive/c/ArmToolchain/arm-linux-uclibc/bin/../../lib/libc.a(vswprintf.os)
 .bss           0x28128332        0x0 /cygdrive/c/ArmToolchain/arm-linux-uclibc/bin/../../lib/libc.a(vfwprintf.os)
 .bss           0x28128332        0x0 /cygdrive/c/ArmToolchain/arm-linux-uclibc/bin/../../lib/libc.a(fputws.os)
 .bss           0x28128332        0x0 /cygdrive/c/ArmToolchain/arm-linux-uclibc/bin/../../lib/libc.a(fputs_unlocked.os)
 .bss           0x28128332        0x0 /cygdrive/c/ArmToolchain/arm-linux-uclibc/bin/../../lib/libc.a(fwrite_unlocked.os)
 .bss           0x28128332        0x0 /cygdrive/c/ArmToolchain/arm-linux-uclibc/bin/../../lib/libc.a(fputws_unlocked.os)
 .bss           0x28128332        0x0 /cygdrive/c/ArmToolchain/arm-linux-uclibc/bin/../../lib/libc.a(memcmp.os)
 .bss           0x28128332        0x0 /cygdrive/c/ArmToolchain/arm-linux-uclibc/bin/../../lib/libc.a(memcpy.os)
 .bss           0x28128332        0x0 /cygdrive/c/ArmToolchain/arm-linux-uclibc/bin/../../lib/libc.a(memmove.os)
 .bss           0x28128332        0x0 /cygdrive/c/ArmToolchain/arm-linux-uclibc/bin/../../lib/libc.a(memset.os)
 .bss           0x28128332        0x0 /cygdrive/c/ArmToolchain/arm-linux-uclibc/bin/../../lib/libc.a(strcmp.os)
 .bss           0x28128332        0x0 /cygdrive/c/ArmToolchain/arm-linux-uclibc/bin/../../lib/libc.a(strlen.os)
 .bss           0x28128332        0x0 /cygdrive/c/ArmToolchain/arm-linux-uclibc/bin/../../lib/libc.a(memchr.os)
 .bss           0x28128332        0x0 /cygdrive/c/ArmToolchain/arm-linux-uclibc/bin/../../lib/libc.a(strcat.os)
 .bss           0x28128332        0x0 /cygdrive/c/ArmToolchain/arm-linux-uclibc/bin/../../lib/libc.a(strchr.os)
 .bss           0x28128332        0x0 /cygdrive/c/ArmToolchain/arm-linux-uclibc/bin/../../lib/libc.a(strcpy.os)
 .bss           0x28128332        0x0 /cygdrive/c/ArmToolchain/arm-linux-uclibc/bin/../../lib/libc.a(strncpy.os)
 .bss           0x28128332        0x0 /cygdrive/c/ArmToolchain/arm-linux-uclibc/bin/../../lib/libc.a(strnlen.os)
 .bss           0x28128332        0x0 /cygdrive/c/ArmToolchain/arm-linux-uclibc/bin/../../lib/libc.a(strrchr.os)
 .bss           0x28128332        0x0 /cygdrive/c/ArmToolchain/arm-linux-uclibc/bin/../../lib/libc.a(strstr.os)
 .bss           0x28128332        0x0 /cygdrive/c/ArmToolchain/arm-linux-uclibc/bin/../../lib/libc.a(__glibc_strerror_r.os)
 .bss           0x28128332        0x0 /cygdrive/c/ArmToolchain/arm-linux-uclibc/bin/../../lib/libc.a(__xpg_strerror_r.os)
 .bss           0x28128332        0x0 /cygdrive/c/ArmToolchain/arm-linux-uclibc/bin/../../lib/libc.a(_string_syserrmsgs.os)
 .bss           0x28128332        0x0 /cygdrive/c/ArmToolchain/arm-linux-uclibc/bin/../../lib/libc.a(wcslen.os)
 .bss           0x28128332        0x0 /cygdrive/c/ArmToolchain/arm-linux-uclibc/bin/../../lib/libc.a(wcsnlen.os)
 .bss           0x28128332        0x0 /cygdrive/c/ArmToolchain/arm-linux-uclibc/bin/../../lib/libc.a(isatty.os)
 .bss           0x28128332        0x0 /cygdrive/c/ArmToolchain/arm-linux-uclibc/bin/../../lib/libc.a(tcgetattr.os)
 .bss           0x28128332        0x0 /cygdrive/c/ArmToolchain/arm-linux-uclibc/bin/../../lib/libc.a(ntop.os)
 .bss           0x28128332        0x0 /cygdrive/c/ArmToolchain/arm-linux-uclibc/bin/../../lib/libc.a(inet_makeaddr.os)
 .bss           0x28128332        0x0 /cygdrive/c/ArmToolchain/arm-linux-uclibc/bin/../../lib/libc.a(raise.os)
 .bss           0x28128332        0x0 /cygdrive/c/ArmToolchain/arm-linux-uclibc/bin/../../lib/libc.a(atol.os)
 .bss           0x28128332        0x0 /cygdrive/c/ArmToolchain/arm-linux-uclibc/bin/../../lib/libc.a(strtol.os)
 .bss           0x28128332        0x0 /cygdrive/c/ArmToolchain/arm-linux-uclibc/bin/../../lib/libc.a(_stdlib_strto_l.os)
 .bss           0x28128332        0x0 /cygdrive/c/ArmToolchain/arm-linux-uclibc/bin/../../lib/libc.a(close.os)
 .bss           0x28128332        0x0 /cygdrive/c/ArmToolchain/arm-linux-uclibc/bin/../../lib/libc.a(getpid.os)
 .bss           0x28128332        0x0 /cygdrive/c/ArmToolchain/arm-linux-uclibc/bin/../../lib/libc.a(ioctl.os)
 .bss           0x28128332        0x0 /cygdrive/c/ArmToolchain/arm-linux-uclibc/bin/../../lib/libc.a(kill.os)
 .bss           0x28128332        0x0 /cygdrive/c/ArmToolchain/arm-linux-uclibc/bin/../../lib/libc.a(llseek.os)
 .bss           0x28128332        0x0 /cygdrive/c/ArmToolchain/arm-linux-uclibc/bin/../../lib/libc.a(read.os)
 .bss           0x28128332        0x0 /cygdrive/c/ArmToolchain/arm-linux-uclibc/bin/../../lib/libc.a(write.os)
 .bss           0x28128332        0x0 /cygdrive/c/ArmToolchain/arm-linux-uclibc/bin/../../lib/libc.a(btowc.os)
 .bss           0x28128332        0x0 /cygdrive/c/ArmToolchain/arm-linux-uclibc/bin/../../lib/libc.a(wcrtomb.os)
 *fill*         0x28128332        0x2 00
 .bss           0x28128334        0x8 /cygdrive/c/ArmToolchain/arm-linux-uclibc/bin/../../lib/libc.a(mbsrtowcs.os)
 .bss           0x2812833c        0x0 /cygdrive/c/ArmToolchain/arm-linux-uclibc/bin/../../lib/libc.a(wcsrtombs.os)
 .bss           0x2812833c        0x8 /cygdrive/c/ArmToolchain/arm-linux-uclibc/bin/../../lib/libc.a(mbsnrtowcs.os)
 .bss           0x28128344        0x0 /cygdrive/c/ArmToolchain/arm-linux-uclibc/bin/../../lib/libc.a(wcsnrtombs.os)
 .bss           0x28128344        0x0 /cygdrive/c/ArmToolchain/arm-linux-uclibc/bin/../../lib/libc.a(_WRITE.os)
 .bss           0x28128344        0x0 /cygdrive/c/ArmToolchain/arm-linux-uclibc/bin/../../lib/libc.a(_fwrite.os)
 .bss           0x28128344        0x0 /cygdrive/c/ArmToolchain/arm-linux-uclibc/bin/../../lib/libc.a(_trans2w.os)
 .bss           0x28128344        0x0 /cygdrive/c/ArmToolchain/arm-linux-uclibc/bin/../../lib/libc.a(_load_inttype.os)
 .bss           0x28128344        0x0 /cygdrive/c/ArmToolchain/arm-linux-uclibc/bin/../../lib/libc.a(_store_inttype.os)
 .bss           0x28128344        0x0 /cygdrive/c/ArmToolchain/arm-linux-uclibc/bin/../../lib/libc.a(_uintmaxtostr.os)
 .bss           0x28128344        0x0 /cygdrive/c/ArmToolchain/arm-linux-uclibc/bin/../../lib/libc.a(_fpmaxtostr.os)
 .bss           0x28128344        0x0 /cygdrive/c/ArmToolchain/arm-linux-uclibc/bin/../../lib/libc.a(_wfwrite.os)
 .bss           0x28128344        0x0 /cygdrive/c/ArmToolchain/arm-linux-uclibc/bin/../../lib/libc.a(_memcpy.os)
 .bss           0x28128344        0x0 /cygdrive/c/ArmToolchain/arm-linux-uclibc/bin/../../lib/libc.a(mempcpy.os)
 .bss           0x28128344        0x0 /cygdrive/c/ArmToolchain/arm-linux-uclibc/bin/../../lib/libc.a(memrchr.os)
 .bss           0x28128344        0x0 /cygdrive/c/ArmToolchain/arm-linux-uclibc/bin/../../lib/libc.a(wmemcpy.os)
 .bss           0x28128344        0x0 /cygdrive/c/ArmToolchain/arm-linux-uclibc/bin/../../lib/libc.a(inet_aton.os)
 .bss           0x28128344        0x0 /cygdrive/c/ArmToolchain/arm-linux-uclibc/bin/../../lib/libc.a(fseeko.os)
 .bss           0x28128344        0x0 /cygdrive/c/ArmToolchain/arm-linux-uclibc/bin/../../lib/libc.a(fseeko64.os)
 .bss           0x28128344        0x0 /cygdrive/c/ArmToolchain/arm-linux-uclibc/bin/../../lib/libc.a(_adjust_pos.os)
 .bss           0x28128344        0x0 /cygdrive/c/ArmToolchain/bin/../lib/gcc/arm-linux-uclibc/4.1.2/libgcc.a(_addsubdf3.o)
 .bss           0x28128344        0x0 /cygdrive/c/ArmToolchain/bin/../lib/gcc/arm-linux-uclibc/4.1.2/libgcc.a(_muldivdf3.o)
 .bss           0x28128344        0x0 /cygdrive/c/ArmToolchain/bin/../lib/gcc/arm-linux-uclibc/4.1.2/libgcc.a(_cmpdf2.o)
 .bss           0x28128344        0x0 /cygdrive/c/ArmToolchain/bin/../lib/gcc/arm-linux-uclibc/4.1.2/libgcc.a(_fixunsdfsi.o)
 *(COMMON)
 COMMON         0x28128344      0x128 ../SDK/lib/libemv.a(emv_core_func.o)
                0x28128344                gl_core_init
 COMMON         0x2812846c       0x50 /cygdrive/c/ArmToolchain/arm-linux-uclibc/bin/../../lib/libc.a(_ppfs_parsespec.os)
                0x2812846c                _custom_printf_arginfo
                0x28128494                _custom_printf_handler
                0x281284bc                . = ALIGN ((. != 0x0)?0x4:0x1)
                0x281284bc                Image__bss__ZI__Limit = .
                0x281284bc                _bss_end__ = .
                0x281284bc                __bss_end__ = .
                0x281284bc                . = ALIGN (0x4)
                0x281284bc                . = ALIGN (0x4)
                0x281284bc                __end__ = .
                0x281284bc                _end = .
                0x281284bc                PROVIDE (end, .)

.stab
 *(.stab)

.stabstr
 *(.stabstr)

.stab.excl
 *(.stab.excl)

.stab.exclstr
 *(.stab.exclstr)

.stab.index
 *(.stab.index)

.stab.indexstr
 *(.stab.indexstr)

.comment        0x00000000      0x534
 *(.comment)
 .comment       0x00000000       0x12 ../obj/Src/wireless.o
 .comment       0x00000012       0x12 ../obj/Src/appsetup.o
 .comment       0x00000024       0x12 ../obj/Src/ChkOption.o
 .comment       0x00000036       0x12 ../obj/Src/Commlib.o
 .comment       0x00000048       0x12 ../obj/Src/devicetest.o
 .comment       0x0000005a       0x12 ../obj/Src/Display.o
 .comment       0x0000006c       0x12 ../obj/Src/getcard.o
 .comment       0x0000007e       0x12 ../obj/Src/globalvar.o
 .comment       0x00000090       0x12 ../obj/Src/main.o
 .comment       0x000000a2       0x12 ../obj/Src/MathLib.o
 .comment       0x000000b4       0x12 ../obj/Src/New8110_ICC.o
 .comment       0x000000c6       0x12 ../obj/Src/NewPosApi.o
 .comment       0x000000d8       0x12 ../obj/Src/opermanage.o
 .comment       0x000000ea       0x12 ../obj/Src/otherfunc.o
 .comment       0x000000fc       0x12 ../obj/Src/posfiles.o
 .comment       0x0000010e       0x12 ../obj/Src/PosLib.o
 .comment       0x00000120       0x12 ../obj/Src/posparams.o
 .comment       0x00000132       0x12 ../obj/Src/pospin.o
 .comment       0x00000144       0x12 ../obj/Src/Rs232lib.o
 .comment       0x00000156       0x12 ../obj/Src/trancomm.o
 .comment       0x00000168       0x12 ../obj/Src/tranprint.o
 .comment       0x0000017a       0x12 ../obj/Src/tranproc.o
 .comment       0x0000018c       0x12 ../obj/Src/m1_card/m1_card_proc.o
 .comment       0x0000019e       0x12 ../obj/Src/showDebug/showDebug.o
 .comment       0x000001b0       0x12 ../obj/Src/m1_tranproc.o
 .comment       0x000001c2       0x12 ../obj/Src/LocalFtp.o
 .comment       0x000001d4       0x12 ../obj/Src/NewTime.o
 .comment       0x000001e6       0x12 ../obj/Src/st8583.o
 .comment       0x000001f8       0x12 ../obj/Src/emvtranproc.o
 .comment       0x0000020a       0x12 ../obj/Src/emvtrantest.o
 .comment       0x0000021c       0x12 ../obj/Src/Menu.o
 .comment       0x0000022e       0x12 ../obj/Src/otherTxn.o
 .comment       0x00000240       0x12 ../obj/Src/pack8583.o
 .comment       0x00000252       0x12 ../obj/Src/qpbocProc.o
 .comment       0x00000264       0x12 ../SDK/lib/libseos.a(dll.o)
 .comment       0x00000276       0x12 ../SDK/lib/libemv.a(emv_core_func.o)
 .comment       0x00000288       0x12 ../SDK/lib/libemv.a(emvaidlist.o)
 .comment       0x0000029a       0x12 ../SDK/lib/libemv.a(emvappselect.o)
 .comment       0x000002ac       0x12 ../SDK/lib/libemv.a(emvcandapp.o)
 .comment       0x000002be       0x12 ../SDK/lib/libemv.a(emvcapk.o)
 .comment       0x000002d0       0x12 ../SDK/lib/libemv.a(emvcomplete.o)
 .comment       0x000002e2       0x12 ../SDK/lib/libemv.a(emvconfigure.o)
 .comment       0x000002f4       0x12 ../SDK/lib/libemv.a(emvcvm.o)
 .comment       0x00000306       0x12 ../SDK/lib/libemv.a(emvddflist.o)
 .comment       0x00000318       0x12 ../SDK/lib/libemv.a(emvdol.o)
 .comment       0x0000032a       0x12 ../SDK/lib/libemv.a(emvdte.o)
 .comment       0x0000033c       0x12 ../SDK/lib/libemv.a(emvicc.o)
 .comment       0x0000034e       0x12 ../SDK/lib/libemv.a(emvoda.o)
 .comment       0x00000360       0x12 ../SDK/lib/libemv.a(emvodalist.o)
 .comment       0x00000372       0x12 ../SDK/lib/libemv.a(emvpinverify.o)
 .comment       0x00000384       0x12 ../SDK/lib/libemv.a(emvprocrest.o)
 .comment       0x00000396       0x12 ../SDK/lib/libemv.a(emvpubfunc.o)
 .comment       0x000003a8       0x12 ../SDK/lib/libemv.a(emvreadappdata.o)
 .comment       0x000003ba       0x12 ../SDK/lib/libemv.a(emvtac.o)
 .comment       0x000003cc       0x12 ../SDK/lib/libemv.a(emvtermrisk.o)
 .comment       0x000003de       0x12 ../SDK/lib/libemv.a(emvtlv.o)
 .comment       0x000003f0       0x12 ../SDK/lib/libemv.a(qpbocapi.o)
 .comment       0x00000402       0x12 ../SDK/lib/libemv.a(EmvRsa.o)
 .comment       0x00000414       0x12 ../SDK/lib/libemv.a(EmvSHA1.o)
 .comment       0x00000426       0x12 ../SDK/lib/libemv.a(qpboc_funcs.o)
 .comment       0x00000438       0x12 ../SDK/lib/libcrypto.a(perror.o)
 .comment       0x0000044a       0x12 ../SDK/lib/libcrypto.a(sha1_one.o)
 .comment       0x0000045c       0x12 ../SDK/lib/libcrypto.a(sha1dgst.o)
 .comment       0x0000046e       0x12 ../SDK/lib/libcrypto.a(fprintf.o)
 .comment       0x00000480       0x12 ../SDK/lib/libcrypto.a(write.o)
 .comment       0x00000492       0x12 ../SDK/lib/libcrypto.a(console.o)
 .comment       0x000004a4       0x12 ../SDK/lib/libcrypto.a(mem_clr.o)
 .comment       0x000004b6       0x12 ../SDK/lib/libcrypto.a(fopen.o)
 .comment       0x000004c8       0x12 ../SDK/lib/libcrypto.a(open.o)
 .comment       0x000004da       0x12 ../SDK/lib/liballoc.a(memmgr.o)
 .comment       0x000004ec       0x12 ../SDK/lib/libftp.a(ftp.o)
 .comment       0x000004fe       0x12 ../SDK/lib/libftp.a(net.o)
 .comment       0x00000510       0x12 /cygdrive/c/ArmToolchain/bin/../lib/gcc/arm-linux-uclibc/4.1.2/libgcc.a(_divdi3.o)
 .comment       0x00000522       0x12 /cygdrive/c/ArmToolchain/bin/../lib/gcc/arm-linux-uclibc/4.1.2/libgcc.a(_clz.o)

.debug
 *(.debug)

.line
 *(.line)

.debug_srcinfo
 *(.debug_srcinfo)

.debug_sfnames
 *(.debug_sfnames)

.debug_aranges  0x00000000      0x5c0
 *(.debug_aranges)
 .debug_aranges
                0x00000000       0x20 ../obj/Src/init.o
 .debug_aranges
                0x00000020       0x20 ../obj/Src/wireless.o
 .debug_aranges
                0x00000040       0x20 ../obj/Src/appsetup.o
 .debug_aranges
                0x00000060       0x20 ../obj/Src/ChkOption.o
 .debug_aranges
                0x00000080       0x20 ../obj/Src/Commlib.o
 .debug_aranges
                0x000000a0       0x20 ../obj/Src/devicetest.o
 .debug_aranges
                0x000000c0       0x20 ../obj/Src/Display.o
 .debug_aranges
                0x000000e0       0x20 ../obj/Src/getcard.o
 .debug_aranges
                0x00000100       0x20 ../obj/Src/globalvar.o
 .debug_aranges
                0x00000120       0x20 ../obj/Src/main.o
 .debug_aranges
                0x00000140       0x20 ../obj/Src/MathLib.o
 .debug_aranges
                0x00000160       0x20 ../obj/Src/New8110_ICC.o
 .debug_aranges
                0x00000180       0x20 ../obj/Src/NewPosApi.o
 .debug_aranges
                0x000001a0       0x20 ../obj/Src/opermanage.o
 .debug_aranges
                0x000001c0       0x20 ../obj/Src/otherfunc.o
 .debug_aranges
                0x000001e0       0x20 ../obj/Src/posfiles.o
 .debug_aranges
                0x00000200       0x20 ../obj/Src/PosLib.o
 .debug_aranges
                0x00000220       0x20 ../obj/Src/posparams.o
 .debug_aranges
                0x00000240       0x20 ../obj/Src/pospin.o
 .debug_aranges
                0x00000260       0x20 ../obj/Src/Rs232lib.o
 .debug_aranges
                0x00000280       0x20 ../obj/Src/trancomm.o
 .debug_aranges
                0x000002a0       0x20 ../obj/Src/tranprint.o
 .debug_aranges
                0x000002c0       0x20 ../obj/Src/tranproc.o
 .debug_aranges
                0x000002e0       0x20 ../obj/Src/m1_card/m1_card_proc.o
 .debug_aranges
                0x00000300       0x20 ../obj/Src/showDebug/showDebug.o
 .debug_aranges
                0x00000320       0x20 ../obj/Src/m1_tranproc.o
 .debug_aranges
                0x00000340       0x20 ../obj/Src/LocalFtp.o
 .debug_aranges
                0x00000360       0x20 ../obj/Src/NewTime.o
 .debug_aranges
                0x00000380       0x20 ../obj/Src/emvtranproc.o
 .debug_aranges
                0x000003a0       0x20 ../obj/Src/Menu.o
 .debug_aranges
                0x000003c0       0x20 ../obj/Src/otherTxn.o
 .debug_aranges
                0x000003e0       0x20 ../obj/Src/pack8583.o
 .debug_aranges
                0x00000400       0x20 ../obj/Src/qpbocProc.o
 .debug_aranges
                0x00000420       0x20 ../SDK/lib/libseos.a(dll.o)
 .debug_aranges
                0x00000440       0x20 ../SDK/lib/liballoc.a(memmgr.o)
 .debug_aranges
                0x00000460       0x20 ../SDK/lib/libftp.a(ftp.o)
 .debug_aranges
                0x00000480       0x20 ../SDK/lib/libftp.a(net.o)
 .debug_aranges
                0x000004a0       0x20 /cygdrive/c/ArmToolchain/bin/../lib/gcc/arm-linux-uclibc/4.1.2/libgcc.a(_udivsi3.o)
 .debug_aranges
                0x000004c0       0x20 /cygdrive/c/ArmToolchain/bin/../lib/gcc/arm-linux-uclibc/4.1.2/libgcc.a(_divsi3.o)
 .debug_aranges
                0x000004e0       0x20 /cygdrive/c/ArmToolchain/bin/../lib/gcc/arm-linux-uclibc/4.1.2/libgcc.a(_umodsi3.o)
 .debug_aranges
                0x00000500       0x20 /cygdrive/c/ArmToolchain/bin/../lib/gcc/arm-linux-uclibc/4.1.2/libgcc.a(_modsi3.o)
 .debug_aranges
                0x00000520       0x20 /cygdrive/c/ArmToolchain/bin/../lib/gcc/arm-linux-uclibc/4.1.2/libgcc.a(_dvmd_lnx.o)
 .debug_aranges
                0x00000540       0x20 /cygdrive/c/ArmToolchain/bin/../lib/gcc/arm-linux-uclibc/4.1.2/libgcc.a(_addsubdf3.o)
 .debug_aranges
                0x00000560       0x20 /cygdrive/c/ArmToolchain/bin/../lib/gcc/arm-linux-uclibc/4.1.2/libgcc.a(_muldivdf3.o)
 .debug_aranges
                0x00000580       0x20 /cygdrive/c/ArmToolchain/bin/../lib/gcc/arm-linux-uclibc/4.1.2/libgcc.a(_cmpdf2.o)
 .debug_aranges
                0x000005a0       0x20 /cygdrive/c/ArmToolchain/bin/../lib/gcc/arm-linux-uclibc/4.1.2/libgcc.a(_fixunsdfsi.o)

.debug_pubnames
                0x00000000     0x51e9
 *(.debug_pubnames)
 .debug_pubnames
                0x00000000      0x110 ../obj/Src/wireless.o
 .debug_pubnames
                0x00000110      0x251 ../obj/Src/appsetup.o
 .debug_pubnames
                0x00000361       0xde ../obj/Src/ChkOption.o
 .debug_pubnames
                0x0000043f       0xda ../obj/Src/Commlib.o
 .debug_pubnames
                0x00000519       0x65 ../obj/Src/devicetest.o
 .debug_pubnames
                0x0000057e       0x98 ../obj/Src/Display.o
 .debug_pubnames
                0x00000616      0x18f ../obj/Src/getcard.o
 .debug_pubnames
                0x000007a5      0x267 ../obj/Src/globalvar.o
 .debug_pubnames
                0x00000a0c      0x18e ../obj/Src/main.o
 .debug_pubnames
                0x00000b9a      0x1fc ../obj/Src/MathLib.o
 .debug_pubnames
                0x00000d96      0x106 ../obj/Src/New8110_ICC.o
 .debug_pubnames
                0x00000e9c      0x185 ../obj/Src/NewPosApi.o
 .debug_pubnames
                0x00001021       0xc8 ../obj/Src/opermanage.o
 .debug_pubnames
                0x000010e9      0x2ca ../obj/Src/otherfunc.o
 .debug_pubnames
                0x000013b3      0x47e ../obj/Src/posfiles.o
 .debug_pubnames
                0x00001831      0x1d4 ../obj/Src/PosLib.o
 .debug_pubnames
                0x00001a05       0x35 ../obj/Src/posparams.o
 .debug_pubnames
                0x00001a3a       0x72 ../obj/Src/pospin.o
 .debug_pubnames
                0x00001aac       0x7f ../obj/Src/Rs232lib.o
 .debug_pubnames
                0x00001b2b      0x1b9 ../obj/Src/trancomm.o
 .debug_pubnames
                0x00001ce4      0x1e1 ../obj/Src/tranprint.o
 .debug_pubnames
                0x00001ec5      0x5e2 ../obj/Src/tranproc.o
 .debug_pubnames
                0x000024a7       0xdb ../obj/Src/m1_card/m1_card_proc.o
 .debug_pubnames
                0x00002582       0x49 ../obj/Src/showDebug/showDebug.o
 .debug_pubnames
                0x000025cb      0x470 ../obj/Src/m1_tranproc.o
 .debug_pubnames
                0x00002a3b       0xc6 ../obj/Src/LocalFtp.o
 .debug_pubnames
                0x00002b01       0x5c ../obj/Src/NewTime.o
 .debug_pubnames
                0x00002b5d       0x47 ../obj/Src/st8583.o
 .debug_pubnames
                0x00002ba4      0x41f ../obj/Src/emvtranproc.o
 .debug_pubnames
                0x00002fc3      0x297 ../obj/Src/Menu.o
 .debug_pubnames
                0x0000325a      0x181 ../obj/Src/otherTxn.o
 .debug_pubnames
                0x000033db       0x30 ../obj/Src/pack8583.o
 .debug_pubnames
                0x0000340b      0x167 ../obj/Src/qpbocProc.o
 .debug_pubnames
                0x00003572     0x1b14 ../SDK/lib/libseos.a(dll.o)
 .debug_pubnames
                0x00005086       0x92 ../SDK/lib/liballoc.a(memmgr.o)
 .debug_pubnames
                0x00005118       0x6b ../SDK/lib/libftp.a(ftp.o)
 .debug_pubnames
                0x00005183       0x66 ../SDK/lib/libftp.a(net.o)

.debug_info     0x00000000    0x3b1e0
 *(.debug_info .gnu.linkonce.wi.*)
 .debug_info    0x00000000       0x62 ../obj/Src/init.o
 .debug_info    0x00000062     0x1545 ../obj/Src/wireless.o
 .debug_info    0x000015a7     0x1ae3 ../obj/Src/appsetup.o
 .debug_info    0x0000308a      0x488 ../obj/Src/ChkOption.o
 .debug_info    0x00003512     0x2210 ../obj/Src/Commlib.o
 .debug_info    0x00005722      0x22b ../obj/Src/devicetest.o
 .debug_info    0x0000594d      0x1ff ../obj/Src/Display.o
 .debug_info    0x00005b4c     0x1fa9 ../obj/Src/getcard.o
 .debug_info    0x00007af5     0x27fb ../obj/Src/globalvar.o
 .debug_info    0x0000a2f0     0x2b02 ../obj/Src/main.o
 .debug_info    0x0000cdf2      0xc76 ../obj/Src/MathLib.o
 .debug_info    0x0000da68      0x444 ../obj/Src/New8110_ICC.o
 .debug_info    0x0000deac     0x1413 ../obj/Src/NewPosApi.o
 .debug_info    0x0000f2bf     0x1102 ../obj/Src/opermanage.o
 .debug_info    0x000103c1     0x2c57 ../obj/Src/otherfunc.o
 .debug_info    0x00013018     0x3a48 ../obj/Src/posfiles.o
 .debug_info    0x00016a60     0x1405 ../obj/Src/PosLib.o
 .debug_info    0x00017e65      0x6eb ../obj/Src/posparams.o
 .debug_info    0x00018550     0x189c ../obj/Src/pospin.o
 .debug_info    0x00019dec      0x2a9 ../obj/Src/Rs232lib.o
 .debug_info    0x0001a095     0x1ddc ../obj/Src/trancomm.o
 .debug_info    0x0001be71     0x2d3b ../obj/Src/tranprint.o
 .debug_info    0x0001ebac     0x36d9 ../obj/Src/tranproc.o
 .debug_info    0x00022285      0x501 ../obj/Src/m1_card/m1_card_proc.o
 .debug_info    0x00022786      0x214 ../obj/Src/showDebug/showDebug.o
 .debug_info    0x0002299a     0x4315 ../obj/Src/m1_tranproc.o
 .debug_info    0x00026caf      0x784 ../obj/Src/LocalFtp.o
 .debug_info    0x00027433      0x57c ../obj/Src/NewTime.o
 .debug_info    0x000279af      0x4b4 ../obj/Src/st8583.o
 .debug_info    0x00027e63     0x2e0c ../obj/Src/emvtranproc.o
 .debug_info    0x0002ac6f       0x7a ../obj/Src/emvtrantest.o
 .debug_info    0x0002ace9     0x25ee ../obj/Src/Menu.o
 .debug_info    0x0002d2d7     0x1c18 ../obj/Src/otherTxn.o
 .debug_info    0x0002eeef      0x4b7 ../obj/Src/pack8583.o
 .debug_info    0x0002f3a6     0x1ca0 ../obj/Src/qpbocProc.o
 .debug_info    0x00031046     0x8a82 ../SDK/lib/libseos.a(dll.o)
 .debug_info    0x00039ac8      0x391 ../SDK/lib/liballoc.a(memmgr.o)
 .debug_info    0x00039e59      0x8df ../SDK/lib/libftp.a(ftp.o)
 .debug_info    0x0003a738      0x39b ../SDK/lib/libftp.a(net.o)
 .debug_info    0x0003aad3       0xc9 /cygdrive/c/ArmToolchain/bin/../lib/gcc/arm-linux-uclibc/4.1.2/libgcc.a(_udivsi3.o)
 .debug_info    0x0003ab9c       0xc9 /cygdrive/c/ArmToolchain/bin/../lib/gcc/arm-linux-uclibc/4.1.2/libgcc.a(_divsi3.o)
 .debug_info    0x0003ac65       0xc9 /cygdrive/c/ArmToolchain/bin/../lib/gcc/arm-linux-uclibc/4.1.2/libgcc.a(_umodsi3.o)
 .debug_info    0x0003ad2e       0xc9 /cygdrive/c/ArmToolchain/bin/../lib/gcc/arm-linux-uclibc/4.1.2/libgcc.a(_modsi3.o)
 .debug_info    0x0003adf7       0xc9 /cygdrive/c/ArmToolchain/bin/../lib/gcc/arm-linux-uclibc/4.1.2/libgcc.a(_dvmd_lnx.o)
 .debug_info    0x0003aec0       0xc8 /cygdrive/c/ArmToolchain/bin/../lib/gcc/arm-linux-uclibc/4.1.2/libgcc.a(_addsubdf3.o)
 .debug_info    0x0003af88       0xc8 /cygdrive/c/ArmToolchain/bin/../lib/gcc/arm-linux-uclibc/4.1.2/libgcc.a(_muldivdf3.o)
 .debug_info    0x0003b050       0xc8 /cygdrive/c/ArmToolchain/bin/../lib/gcc/arm-linux-uclibc/4.1.2/libgcc.a(_cmpdf2.o)
 .debug_info    0x0003b118       0xc8 /cygdrive/c/ArmToolchain/bin/../lib/gcc/arm-linux-uclibc/4.1.2/libgcc.a(_fixunsdfsi.o)

.debug_abbrev   0x00000000     0x4432
 *(.debug_abbrev)
 .debug_abbrev  0x00000000       0x14 ../obj/Src/init.o
 .debug_abbrev  0x00000014      0x204 ../obj/Src/wireless.o
 .debug_abbrev  0x00000218      0x215 ../obj/Src/appsetup.o
 .debug_abbrev  0x0000042d      0x103 ../obj/Src/ChkOption.o
 .debug_abbrev  0x00000530      0x2cf ../obj/Src/Commlib.o
 .debug_abbrev  0x000007ff      0x133 ../obj/Src/devicetest.o
 .debug_abbrev  0x00000932       0xc7 ../obj/Src/Display.o
 .debug_abbrev  0x000009f9      0x1f4 ../obj/Src/getcard.o
 .debug_abbrev  0x00000bed      0x14a ../obj/Src/globalvar.o
 .debug_abbrev  0x00000d37      0x29b ../obj/Src/main.o
 .debug_abbrev  0x00000fd2      0x1be ../obj/Src/MathLib.o
 .debug_abbrev  0x00001190      0x199 ../obj/Src/New8110_ICC.o
 .debug_abbrev  0x00001329      0x25e ../obj/Src/NewPosApi.o
 .debug_abbrev  0x00001587      0x1d9 ../obj/Src/opermanage.o
 .debug_abbrev  0x00001760      0x28b ../obj/Src/otherfunc.o
 .debug_abbrev  0x000019eb      0x209 ../obj/Src/posfiles.o
 .debug_abbrev  0x00001bf4      0x28a ../obj/Src/PosLib.o
 .debug_abbrev  0x00001e7e      0x286 ../obj/Src/posparams.o
 .debug_abbrev  0x00002104      0x1ab ../obj/Src/pospin.o
 .debug_abbrev  0x000022af       0x86 ../obj/Src/Rs232lib.o
 .debug_abbrev  0x00002335      0x1e0 ../obj/Src/trancomm.o
 .debug_abbrev  0x00002515      0x20f ../obj/Src/tranprint.o
 .debug_abbrev  0x00002724      0x23b ../obj/Src/tranproc.o
 .debug_abbrev  0x0000295f      0x146 ../obj/Src/m1_card/m1_card_proc.o
 .debug_abbrev  0x00002aa5       0xc6 ../obj/Src/showDebug/showDebug.o
 .debug_abbrev  0x00002b6b      0x276 ../obj/Src/m1_tranproc.o
 .debug_abbrev  0x00002de1      0x1de ../obj/Src/LocalFtp.o
 .debug_abbrev  0x00002fbf      0x1e5 ../obj/Src/NewTime.o
 .debug_abbrev  0x000031a4       0x90 ../obj/Src/st8583.o
 .debug_abbrev  0x00003234      0x267 ../obj/Src/emvtranproc.o
 .debug_abbrev  0x0000349b       0x2a ../obj/Src/emvtrantest.o
 .debug_abbrev  0x000034c5      0x1d0 ../obj/Src/Menu.o
 .debug_abbrev  0x00003695      0x17c ../obj/Src/otherTxn.o
 .debug_abbrev  0x00003811      0x15b ../obj/Src/pack8583.o
 .debug_abbrev  0x0000396c      0x1fd ../obj/Src/qpbocProc.o
 .debug_abbrev  0x00003b69      0x312 ../SDK/lib/libseos.a(dll.o)
 .debug_abbrev  0x00003e7b      0x1c0 ../SDK/lib/liballoc.a(memmgr.o)
 .debug_abbrev  0x0000403b      0x256 ../SDK/lib/libftp.a(ftp.o)
 .debug_abbrev  0x00004291       0xed ../SDK/lib/libftp.a(net.o)
 .debug_abbrev  0x0000437e       0x14 /cygdrive/c/ArmToolchain/bin/../lib/gcc/arm-linux-uclibc/4.1.2/libgcc.a(_udivsi3.o)
 .debug_abbrev  0x00004392       0x14 /cygdrive/c/ArmToolchain/bin/../lib/gcc/arm-linux-uclibc/4.1.2/libgcc.a(_divsi3.o)
 .debug_abbrev  0x000043a6       0x14 /cygdrive/c/ArmToolchain/bin/../lib/gcc/arm-linux-uclibc/4.1.2/libgcc.a(_umodsi3.o)
 .debug_abbrev  0x000043ba       0x14 /cygdrive/c/ArmToolchain/bin/../lib/gcc/arm-linux-uclibc/4.1.2/libgcc.a(_modsi3.o)
 .debug_abbrev  0x000043ce       0x14 /cygdrive/c/ArmToolchain/bin/../lib/gcc/arm-linux-uclibc/4.1.2/libgcc.a(_dvmd_lnx.o)
 .debug_abbrev  0x000043e2       0x14 /cygdrive/c/ArmToolchain/bin/../lib/gcc/arm-linux-uclibc/4.1.2/libgcc.a(_addsubdf3.o)
 .debug_abbrev  0x000043f6       0x14 /cygdrive/c/ArmToolchain/bin/../lib/gcc/arm-linux-uclibc/4.1.2/libgcc.a(_muldivdf3.o)
 .debug_abbrev  0x0000440a       0x14 /cygdrive/c/ArmToolchain/bin/../lib/gcc/arm-linux-uclibc/4.1.2/libgcc.a(_cmpdf2.o)
 .debug_abbrev  0x0000441e       0x14 /cygdrive/c/ArmToolchain/bin/../lib/gcc/arm-linux-uclibc/4.1.2/libgcc.a(_fixunsdfsi.o)

.debug_line     0x00000000     0xaa21
 *(.debug_line)
 .debug_line    0x00000000       0x49 ../obj/Src/init.o
 .debug_line    0x00000049      0x48e ../obj/Src/wireless.o
 .debug_line    0x000004d7      0x6f1 ../obj/Src/appsetup.o
 .debug_line    0x00000bc8      0x119 ../obj/Src/ChkOption.o
 .debug_line    0x00000ce1      0x60b ../obj/Src/Commlib.o
 .debug_line    0x000012ec      0x180 ../obj/Src/devicetest.o
 .debug_line    0x0000146c      0x107 ../obj/Src/Display.o
 .debug_line    0x00001573      0x3c4 ../obj/Src/getcard.o
 .debug_line    0x00001937      0x172 ../obj/Src/globalvar.o
 .debug_line    0x00001aa9      0x408 ../obj/Src/main.o
 .debug_line    0x00001eb1      0x2d2 ../obj/Src/MathLib.o
 .debug_line    0x00002183      0x107 ../obj/Src/New8110_ICC.o
 .debug_line    0x0000228a      0x324 ../obj/Src/NewPosApi.o
 .debug_line    0x000025ae      0x35a ../obj/Src/opermanage.o
 .debug_line    0x00002908      0x6a4 ../obj/Src/otherfunc.o
 .debug_line    0x00002fac      0x891 ../obj/Src/posfiles.o
 .debug_line    0x0000383d      0x573 ../obj/Src/PosLib.o
 .debug_line    0x00003db0      0x1e1 ../obj/Src/posparams.o
 .debug_line    0x00003f91      0x253 ../obj/Src/pospin.o
 .debug_line    0x000041e4       0x99 ../obj/Src/Rs232lib.o
 .debug_line    0x0000427d      0x38b ../obj/Src/trancomm.o
 .debug_line    0x00004608      0x7bb ../obj/Src/tranprint.o
 .debug_line    0x00004dc3      0xb97 ../obj/Src/tranproc.o
 .debug_line    0x0000595a      0x180 ../obj/Src/m1_card/m1_card_proc.o
 .debug_line    0x00005ada      0x152 ../obj/Src/showDebug/showDebug.o
 .debug_line    0x00005c2c      0xe02 ../obj/Src/m1_tranproc.o
 .debug_line    0x00006a2e      0x294 ../obj/Src/LocalFtp.o
 .debug_line    0x00006cc2      0x170 ../obj/Src/NewTime.o
 .debug_line    0x00006e32       0xa9 ../obj/Src/st8583.o
 .debug_line    0x00006edb      0x5c3 ../obj/Src/emvtranproc.o
 .debug_line    0x0000749e       0x1d ../obj/Src/emvtrantest.o
 .debug_line    0x000074bb      0x811 ../obj/Src/Menu.o
 .debug_line    0x00007ccc      0x43d ../obj/Src/otherTxn.o
 .debug_line    0x00008109      0x251 ../obj/Src/pack8583.o
 .debug_line    0x0000835a      0x3b0 ../obj/Src/qpbocProc.o
 .debug_line    0x0000870a     0x1339 ../SDK/lib/libseos.a(dll.o)
 .debug_line    0x00009a43      0x122 ../SDK/lib/liballoc.a(memmgr.o)
 .debug_line    0x00009b65      0x3af ../SDK/lib/libftp.a(ftp.o)
 .debug_line    0x00009f14      0x1bc ../SDK/lib/libftp.a(net.o)
 .debug_line    0x0000a0d0       0xb3 /cygdrive/c/ArmToolchain/bin/../lib/gcc/arm-linux-uclibc/4.1.2/libgcc.a(_udivsi3.o)
 .debug_line    0x0000a183       0xbf /cygdrive/c/ArmToolchain/bin/../lib/gcc/arm-linux-uclibc/4.1.2/libgcc.a(_divsi3.o)
 .debug_line    0x0000a242       0x9c /cygdrive/c/ArmToolchain/bin/../lib/gcc/arm-linux-uclibc/4.1.2/libgcc.a(_umodsi3.o)
 .debug_line    0x0000a2de       0xa2 /cygdrive/c/ArmToolchain/bin/../lib/gcc/arm-linux-uclibc/4.1.2/libgcc.a(_modsi3.o)
 .debug_line    0x0000a380       0x8d /cygdrive/c/ArmToolchain/bin/../lib/gcc/arm-linux-uclibc/4.1.2/libgcc.a(_dvmd_lnx.o)
 .debug_line    0x0000a40d      0x210 /cygdrive/c/ArmToolchain/bin/../lib/gcc/arm-linux-uclibc/4.1.2/libgcc.a(_addsubdf3.o)
 .debug_line    0x0000a61d      0x251 /cygdrive/c/ArmToolchain/bin/../lib/gcc/arm-linux-uclibc/4.1.2/libgcc.a(_muldivdf3.o)
 .debug_line    0x0000a86e      0x119 /cygdrive/c/ArmToolchain/bin/../lib/gcc/arm-linux-uclibc/4.1.2/libgcc.a(_cmpdf2.o)
 .debug_line    0x0000a987       0x9a /cygdrive/c/ArmToolchain/bin/../lib/gcc/arm-linux-uclibc/4.1.2/libgcc.a(_fixunsdfsi.o)

.debug_frame    0x00000000     0x9a8c
 *(.debug_frame)
 .debug_frame   0x00000000      0x218 ../obj/Src/wireless.o
 .debug_frame   0x00000218      0x464 ../obj/Src/appsetup.o
 .debug_frame   0x0000067c      0x178 ../obj/Src/ChkOption.o
 .debug_frame   0x000007f4      0x360 ../obj/Src/Commlib.o
 .debug_frame   0x00000b54       0xbc ../obj/Src/devicetest.o
 .debug_frame   0x00000c10       0xe0 ../obj/Src/Display.o
 .debug_frame   0x00000cf0      0x2dc ../obj/Src/getcard.o
 .debug_frame   0x00000fcc       0x30 ../obj/Src/globalvar.o
 .debug_frame   0x00000ffc      0x2f8 ../obj/Src/main.o
 .debug_frame   0x000012f4      0x45c ../obj/Src/MathLib.o
 .debug_frame   0x00001750      0x15c ../obj/Src/New8110_ICC.o
 .debug_frame   0x000018ac      0x3e4 ../obj/Src/NewPosApi.o
 .debug_frame   0x00001c90      0x1b0 ../obj/Src/opermanage.o
 .debug_frame   0x00001e40      0x58c ../obj/Src/otherfunc.o
 .debug_frame   0x000023cc      0x874 ../obj/Src/posfiles.o
 .debug_frame   0x00002c40      0x41c ../obj/Src/PosLib.o
 .debug_frame   0x0000305c       0xac ../obj/Src/posparams.o
 .debug_frame   0x00003108       0xf8 ../obj/Src/pospin.o
 .debug_frame   0x00003200       0xe4 ../obj/Src/Rs232lib.o
 .debug_frame   0x000032e4      0x300 ../obj/Src/trancomm.o
 .debug_frame   0x000035e4      0x388 ../obj/Src/tranprint.o
 .debug_frame   0x0000396c      0xaa8 ../obj/Src/tranproc.o
 .debug_frame   0x00004414      0x188 ../obj/Src/m1_card/m1_card_proc.o
 .debug_frame   0x0000459c       0x84 ../obj/Src/showDebug/showDebug.o
 .debug_frame   0x00004620      0x8b4 ../obj/Src/m1_tranproc.o
 .debug_frame   0x00004ed4      0x1b0 ../obj/Src/LocalFtp.o
 .debug_frame   0x00005084       0xec ../obj/Src/NewTime.o
 .debug_frame   0x00005170      0x630 ../obj/Src/emvtranproc.o
 .debug_frame   0x000057a0      0x4d8 ../obj/Src/Menu.o
 .debug_frame   0x00005c78      0x2b8 ../obj/Src/otherTxn.o
 .debug_frame   0x00005f30       0xc0 ../obj/Src/pack8583.o
 .debug_frame   0x00005ff0      0x21c ../obj/Src/qpbocProc.o
 .debug_frame   0x0000620c     0x33ec ../SDK/lib/libseos.a(dll.o)
 .debug_frame   0x000095f8      0x170 ../SDK/lib/liballoc.a(memmgr.o)
 .debug_frame   0x00009768      0x194 ../SDK/lib/libftp.a(ftp.o)
 .debug_frame   0x000098fc       0xf0 ../SDK/lib/libftp.a(net.o)
 .debug_frame   0x000099ec       0x28 /cygdrive/c/ArmToolchain/bin/../lib/gcc/arm-linux-uclibc/4.1.2/libgcc.a(_udivsi3.o)
 .debug_frame   0x00009a14       0x28 /cygdrive/c/ArmToolchain/bin/../lib/gcc/arm-linux-uclibc/4.1.2/libgcc.a(_divsi3.o)
 .debug_frame   0x00009a3c       0x28 /cygdrive/c/ArmToolchain/bin/../lib/gcc/arm-linux-uclibc/4.1.2/libgcc.a(_umodsi3.o)
 .debug_frame   0x00009a64       0x28 /cygdrive/c/ArmToolchain/bin/../lib/gcc/arm-linux-uclibc/4.1.2/libgcc.a(_modsi3.o)

.debug_str      0x00000000     0x9edd
 *(.debug_str)
 .debug_str     0x00000000      0xc90 ../obj/Src/wireless.o
                                0xdbf (size before relaxing)
 .debug_str     0x00000c90      0x4f5 ../obj/Src/appsetup.o
                                0xf91 (size before relaxing)
 .debug_str     0x00001185      0x1e1 ../obj/Src/ChkOption.o
                                0x2fa (size before relaxing)
 .debug_str     0x00001366      0x522 ../obj/Src/Commlib.o
                                0xe66 (size before relaxing)
 .debug_str     0x00001888       0x69 ../obj/Src/devicetest.o
                                0x161 (size before relaxing)
 .debug_str     0x000018f1       0xea ../obj/Src/Display.o
                                0x1cf (size before relaxing)
 .debug_str     0x000019db      0x877 ../obj/Src/getcard.o
                               0x13c6 (size before relaxing)
 .debug_str     0x00002252      0xa26 ../obj/Src/globalvar.o
                               0x1df0 (size before relaxing)
 .debug_str     0x00002c78      0x3f2 ../obj/Src/main.o
                               0x1f67 (size before relaxing)
 .debug_str     0x0000306a      0x3c5 ../obj/Src/MathLib.o
                                0x4e1 (size before relaxing)
 .debug_str     0x0000342f      0x137 ../obj/Src/New8110_ICC.o
                                0x243 (size before relaxing)
 .debug_str     0x00003566      0x2c8 ../obj/Src/NewPosApi.o
                                0xad2 (size before relaxing)
 .debug_str     0x0000382e       0xcf ../obj/Src/opermanage.o
                                0xadb (size before relaxing)
 .debug_str     0x000038fd      0x4fe ../obj/Src/otherfunc.o
                               0x1c32 (size before relaxing)
 .debug_str     0x00003dfb      0x627 ../obj/Src/posfiles.o
                               0x203f (size before relaxing)
 .debug_str     0x00004422      0x499 ../obj/Src/PosLib.o
                                0x6ba (size before relaxing)
 .debug_str     0x000048bb      0x118 ../obj/Src/posparams.o
                                0x260 (size before relaxing)
 .debug_str     0x000049d3       0xba ../obj/Src/pospin.o
                                0xf97 (size before relaxing)
 .debug_str     0x00004a8d       0x96 ../obj/Src/Rs232lib.o
                                0x1de (size before relaxing)
 .debug_str     0x00004b23      0x232 ../obj/Src/trancomm.o
                               0x13c1 (size before relaxing)
 .debug_str     0x00004d55      0x325 ../obj/Src/tranprint.o
                               0x1f99 (size before relaxing)
 .debug_str     0x0000507a      0x764 ../obj/Src/tranproc.o
                               0x1f0c (size before relaxing)
 .debug_str     0x000057de      0x17f ../obj/Src/m1_card/m1_card_proc.o
                                0x2c9 (size before relaxing)
 .debug_str     0x0000595d       0x80 ../obj/Src/showDebug/showDebug.o
                                0x199 (size before relaxing)
 .debug_str     0x000059dd      0x816 ../obj/Src/m1_tranproc.o
                               0x1e80 (size before relaxing)
 .debug_str     0x000061f3      0x19b ../obj/Src/LocalFtp.o
                                0x35c (size before relaxing)
 .debug_str     0x0000638e       0xe1 ../obj/Src/NewTime.o
                                0x236 (size before relaxing)
 .debug_str     0x0000646f       0x10 ../obj/Src/st8583.o
                                0x2d8 (size before relaxing)
 .debug_str     0x0000647f      0x57e ../obj/Src/emvtranproc.o
                               0x1c9a (size before relaxing)
 .debug_str     0x000069fd       0x15 ../obj/Src/emvtrantest.o
                                 0xe2 (size before relaxing)
 .debug_str     0x00006a12      0x314 ../obj/Src/Menu.o
                               0x1489 (size before relaxing)
 .debug_str     0x00006d26      0x19f ../obj/Src/otherTxn.o
                               0x110c (size before relaxing)
 .debug_str     0x00006ec5       0xb5 ../obj/Src/pack8583.o
                                0x23c (size before relaxing)
 .debug_str     0x00006f7a      0x16e ../obj/Src/qpbocProc.o
                               0x1328 (size before relaxing)
 .debug_str     0x000070e8     0x2b83 ../SDK/lib/libseos.a(dll.o)
                               0x33e5 (size before relaxing)
 .debug_str     0x00009c6b       0xdd ../SDK/lib/liballoc.a(memmgr.o)
                                0x160 (size before relaxing)
 .debug_str     0x00009d48      0x17e ../SDK/lib/libftp.a(ftp.o)
                                0x3d1 (size before relaxing)
 .debug_str     0x00009ec6       0x17 ../SDK/lib/libftp.a(net.o)
                                0x1af (size before relaxing)

.debug_loc      0x00000000    0x1fcbd
 *(.debug_loc)
 .debug_loc     0x00000000      0x5fc ../obj/Src/wireless.o
 .debug_loc     0x000005fc      0xd0e ../obj/Src/appsetup.o
 .debug_loc     0x0000130a      0x2fa ../obj/Src/ChkOption.o
 .debug_loc     0x00001604     0x1cf8 ../obj/Src/Commlib.o
 .debug_loc     0x000032fc      0x377 ../obj/Src/devicetest.o
 .debug_loc     0x00003673      0x290 ../obj/Src/Display.o
 .debug_loc     0x00003903      0x8c2 ../obj/Src/getcard.o
 .debug_loc     0x000041c5       0x2a ../obj/Src/globalvar.o
 .debug_loc     0x000041ef      0x7d2 ../obj/Src/main.o
 .debug_loc     0x000049c1      0xe9b ../obj/Src/MathLib.o
 .debug_loc     0x0000585c      0x34b ../obj/Src/New8110_ICC.o
 .debug_loc     0x00005ba7      0xea4 ../obj/Src/NewPosApi.o
 .debug_loc     0x00006a4b      0x4d0 ../obj/Src/opermanage.o
 .debug_loc     0x00006f1b     0x19b5 ../obj/Src/otherfunc.o
 .debug_loc     0x000088d0     0x14e4 ../obj/Src/posfiles.o
 .debug_loc     0x00009db4     0x214b ../obj/Src/PosLib.o
 .debug_loc     0x0000beff      0x3d6 ../obj/Src/posparams.o
 .debug_loc     0x0000c2d5      0x4c3 ../obj/Src/pospin.o
 .debug_loc     0x0000c798      0x36d ../obj/Src/Rs232lib.o
 .debug_loc     0x0000cb05      0x56e ../obj/Src/trancomm.o
 .debug_loc     0x0000d073      0xa03 ../obj/Src/tranprint.o
 .debug_loc     0x0000da76     0x1cb1 ../obj/Src/tranproc.o
 .debug_loc     0x0000f727      0x50f ../obj/Src/m1_card/m1_card_proc.o
 .debug_loc     0x0000fc36      0x12c ../obj/Src/showDebug/showDebug.o
 .debug_loc     0x0000fd62     0x257d ../obj/Src/m1_tranproc.o
 .debug_loc     0x000122df      0x698 ../obj/Src/LocalFtp.o
 .debug_loc     0x00012977      0x2bb ../obj/Src/NewTime.o
 .debug_loc     0x00012c32     0x1736 ../obj/Src/emvtranproc.o
 .debug_loc     0x00014368      0xb61 ../obj/Src/Menu.o
 .debug_loc     0x00014ec9      0x597 ../obj/Src/otherTxn.o
 .debug_loc     0x00015460      0x93a ../obj/Src/pack8583.o
 .debug_loc     0x00015d9a      0x541 ../obj/Src/qpbocProc.o
 .debug_loc     0x000162db     0x88a2 ../SDK/lib/libseos.a(dll.o)
 .debug_loc     0x0001eb7d      0x447 ../SDK/lib/liballoc.a(memmgr.o)
 .debug_loc     0x0001efc4      0xa1e ../SDK/lib/libftp.a(ftp.o)
 .debug_loc     0x0001f9e2      0x2db ../SDK/lib/libftp.a(net.o)

.debug_macinfo
 *(.debug_macinfo)

.debug_weaknames
 *(.debug_weaknames)

.debug_funcnames
 *(.debug_funcnames)

.debug_typenames
 *(.debug_typenames)

.debug_varnames
 *(.debug_varnames)

.debug_pubtypes
 *(.debug_pubtypes)

.debug_ranges   0x00000000      0x728
 *(.debug_ranges)
 .debug_ranges  0x00000000      0x540 ../obj/Src/Commlib.o
 .debug_ranges  0x00000540       0x30 ../obj/Src/MathLib.o
 .debug_ranges  0x00000570       0x50 ../obj/Src/PosLib.o
 .debug_ranges  0x000005c0       0xf8 ../obj/Src/posparams.o
 .debug_ranges  0x000006b8       0x30 ../SDK/lib/libseos.a(dll.o)
 .debug_ranges  0x000006e8       0x40 ../SDK/lib/libftp.a(ftp.o)

.note.gnu.arm.ident
 *(.note.gnu.arm.ident)

/DISCARD/
 *(.note.GNU-stack)
LOAD ../obj/Src/init.o
LOAD ../obj/Src/wireless.o
LOAD ../obj/Src/appsetup.o
LOAD ../obj/Src/ChkOption.o
LOAD ../obj/Src/Commlib.o
LOAD ../obj/Src/devicetest.o
LOAD ../obj/Src/Display.o
LOAD ../obj/Src/getcard.o
LOAD ../obj/Src/globalvar.o
LOAD ../obj/Src/main.o
LOAD ../obj/Src/MathLib.o
LOAD ../obj/Src/New8110_ICC.o
LOAD ../obj/Src/NewPosApi.o
LOAD ../obj/Src/opermanage.o
LOAD ../obj/Src/otherfunc.o
LOAD ../obj/Src/posfiles.o
LOAD ../obj/Src/PosLib.o
LOAD ../obj/Src/posparams.o
LOAD ../obj/Src/pospin.o
LOAD ../obj/Src/Rs232lib.o
LOAD ../obj/Src/trancomm.o
LOAD ../obj/Src/tranprint.o
LOAD ../obj/Src/tranproc.o
LOAD ../obj/Src/m1_card/m1_card_proc.o
LOAD ../obj/Src/showDebug/showDebug.o
LOAD ../obj/Src/m1_tranproc.o
LOAD ../obj/Src/LocalFtp.o
LOAD ../obj/Src/NewTime.o
LOAD ../obj/Src/st8583.o
LOAD ../obj/Src/emvtranproc.o
LOAD ../obj/Src/emvtrantest.o
LOAD ../obj/Src/Menu.o
LOAD ../obj/Src/otherTxn.o
LOAD ../obj/Src/pack8583.o
LOAD ../obj/Src/qpbocProc.o
LOAD ../SDK/lib/libseos.a
LOAD ../SDK/lib/libemv.a
LOAD ../SDK/lib/libcrypto.a
LOAD ../SDK/lib/liballoc.a
LOAD ../SDK/lib/libTMS.a
LOAD ../SDK/lib/libftp.a
START GROUP
LOAD /cygdrive/c/ArmToolchain/bin/../lib/gcc/arm-linux-uclibc/4.1.2/libgcc.a
LOAD /cygdrive/c/ArmToolchain/bin/../lib/gcc/arm-linux-uclibc/4.1.2/libgcc_eh.a
LOAD /cygdrive/c/ArmToolchain/arm-linux-uclibc/bin/../../lib/libc.a
END GROUP
Address of section .text set to 0x28000000
OUTPUT(../obj/LiaoYang_POS.elf elf32-littlearm)

.ARM.attributes
                0x00000000       0x10
 .ARM.attributes
                0x00000000       0x10 ../SDK/lib/libseos.a(dll.o)
 .ARM.attributes
                0x00000010       0x10 ../SDK/lib/libemv.a(emv_core_func.o)
 .ARM.attributes
                0x00000020       0x10 ../SDK/lib/libemv.a(emvaidlist.o)
 .ARM.attributes
                0x00000030       0x10 ../SDK/lib/libemv.a(emvappselect.o)
 .ARM.attributes
                0x00000040       0x10 ../SDK/lib/libemv.a(emvcandapp.o)
 .ARM.attributes
                0x00000050       0x10 ../SDK/lib/libemv.a(emvcapk.o)
 .ARM.attributes
                0x00000060       0x10 ../SDK/lib/libemv.a(emvcomplete.o)
 .ARM.attributes
                0x00000070       0x10 ../SDK/lib/libemv.a(emvconfigure.o)
 .ARM.attributes
                0x00000080       0x10 ../SDK/lib/libemv.a(emvcvm.o)
 .ARM.attributes
                0x00000090       0x10 ../SDK/lib/libemv.a(emvddflist.o)
 .ARM.attributes
                0x000000a0       0x10 ../SDK/lib/libemv.a(emvdol.o)
 .ARM.attributes
                0x000000b0       0x10 ../SDK/lib/libemv.a(emvdte.o)
 .ARM.attributes
                0x000000c0       0x10 ../SDK/lib/libemv.a(emvicc.o)
 .ARM.attributes
                0x000000d0       0x10 ../SDK/lib/libemv.a(emvoda.o)
 .ARM.attributes
                0x000000e0       0x10 ../SDK/lib/libemv.a(emvodalist.o)
 .ARM.attributes
                0x000000f0       0x10 ../SDK/lib/libemv.a(emvpinverify.o)
 .ARM.attributes
                0x00000100       0x10 ../SDK/lib/libemv.a(emvprocrest.o)
 .ARM.attributes
                0x00000110       0x10 ../SDK/lib/libemv.a(emvpubfunc.o)
 .ARM.attributes
                0x00000120       0x10 ../SDK/lib/libemv.a(emvreadappdata.o)
 .ARM.attributes
                0x00000130       0x10 ../SDK/lib/libemv.a(emvtac.o)
 .ARM.attributes
                0x00000140       0x10 ../SDK/lib/libemv.a(emvtermrisk.o)
 .ARM.attributes
                0x00000150       0x10 ../SDK/lib/libemv.a(emvtlv.o)
 .ARM.attributes
                0x00000160       0x10 ../SDK/lib/libemv.a(qpbocapi.o)
 .ARM.attributes
                0x00000170       0x10 ../SDK/lib/libemv.a(EmvRsa.o)
 .ARM.attributes
                0x00000180       0x10 ../SDK/lib/libemv.a(EmvSHA1.o)
 .ARM.attributes
                0x00000190       0x10 ../SDK/lib/libemv.a(qpboc_funcs.o)
 .ARM.attributes
                0x000001a0       0x10 ../SDK/lib/libcrypto.a(perror.o)
 .ARM.attributes
                0x000001b0       0x10 ../SDK/lib/libcrypto.a(sha1_one.o)
 .ARM.attributes
                0x000001c0       0x10 ../SDK/lib/libcrypto.a(sha1dgst.o)
 .ARM.attributes
                0x000001d0       0x10 ../SDK/lib/libcrypto.a(fprintf.o)
 .ARM.attributes
                0x000001e0       0x10 ../SDK/lib/libcrypto.a(write.o)
 .ARM.attributes
                0x000001f0       0x10 ../SDK/lib/libcrypto.a(console.o)
 .ARM.attributes
                0x00000200       0x10 ../SDK/lib/libcrypto.a(mem_clr.o)
 .ARM.attributes
                0x00000210       0x10 ../SDK/lib/libcrypto.a(fopen.o)
 .ARM.attributes
                0x00000220       0x10 ../SDK/lib/libcrypto.a(open.o)
 .ARM.attributes
                0x00000230       0x10 ../SDK/lib/liballoc.a(memmgr.o)
 .ARM.attributes
                0x00000240       0x10 ../SDK/lib/libftp.a(ftp.o)
 .ARM.attributes
                0x00000250       0x10 ../SDK/lib/libftp.a(net.o)

Cross Reference Table

Symbol                                            File
AdjustAppParam                                    ../obj/Src/posfiles.o
                                                  ../obj/Src/main.o
AdjustCommParam                                   ../obj/Src/trancomm.o
                                                  ../obj/Src/wireless.o
AdjustIssuerScript                                ../obj/Src/emvtranproc.o
AdjustTranGetData                                 ../obj/Src/tranproc.o
AfterCommProc                                     ../obj/Src/tranproc.o
                                                  ../obj/Src/qpbocProc.o
                                                  ../obj/Src/otherTxn.o
                                                  ../obj/Src/Menu.o
                                                  ../obj/Src/emvtranproc.o
                                                  ../obj/Src/trancomm.o
AfterSettleTran                                   ../obj/Src/tranproc.o
Agent_Update                                      ../obj/Src/m1_tranproc.o
AmountIsZero                                      ../obj/Src/otherfunc.o
                                                  ../obj/Src/tranproc.o
                                                  ../obj/Src/tranprint.o
AppConfirmAmount                                  ../obj/Src/otherfunc.o
                                                  ../obj/Src/otherTxn.o
                                                  ../obj/Src/Menu.o
                                                  ../obj/Src/emvtranproc.o
                                                  ../obj/Src/tranproc.o
AppEnrichGetAmount                                ../obj/Src/otherfunc.o
AppFirstRun                                       ../obj/Src/main.o
AppGetAmount                                      ../obj/Src/otherfunc.o
                                                  ../obj/Src/qpbocProc.o
                                                  ../obj/Src/otherTxn.o
                                                  ../obj/Src/Menu.o
                                                  ../obj/Src/emvtranproc.o
                                                  ../obj/Src/tranproc.o
AppInfo                                           ../obj/Src/main.o
                                                  ../obj/Src/init.o
AscToBcd                                          ../obj/Src/NewPosApi.o
                                                  ../obj/Src/tranproc.o
                                                  ../obj/Src/trancomm.o
                                                  ../obj/Src/pospin.o
                                                  ../obj/Src/posfiles.o
                                                  ../obj/Src/otherfunc.o
                                                  ../obj/Src/appsetup.o
AscToLong                                         ../obj/Src/NewPosApi.o
                                                  ../obj/Src/otherfunc.o
AuthComfirmGetData                                ../obj/Src/tranproc.o
AutoLogoutSetup                                   ../obj/Src/appsetup.o
BackPosCom                                        ../obj/Src/globalvar.o
                                                  ../obj/Src/otherTxn.o
                                                  ../obj/Src/emvtranproc.o
                                                  ../obj/Src/tranproc.o
                                                  ../obj/Src/trancomm.o
BatchICCOffLineTrans                              ../obj/Src/tranproc.o
BatchMagOnLineTrans                               ../obj/Src/tranproc.o
BatchSendICCOnLineTrans                           ../obj/Src/tranproc.o
BatchSendOffTrans1                                ../obj/Src/tranproc.o
BatchSendOffTrans2_CM                             ../obj/Src/tranproc.o
BatchSendOffTrans2_Refund                         ../obj/Src/tranproc.o
BcdAdd                                            ../obj/Src/NewPosApi.o
                                                  ../obj/Src/tranproc.o
                                                  ../obj/Src/tranprint.o
                                                  ../obj/Src/posfiles.o
BcdToAsc                                          ../obj/Src/NewPosApi.o
                                                  ../obj/Src/emvtranproc.o
                                                  ../obj/Src/tranproc.o
                                                  ../obj/Src/pospin.o
                                                  ../obj/Src/appsetup.o
BcdToAsc0                                         ../obj/Src/NewPosApi.o
                                                  ../obj/Src/qpbocProc.o
                                                  ../obj/Src/Menu.o
                                                  ../obj/Src/emvtranproc.o
                                                  ../obj/Src/tranproc.o
                                                  ../obj/Src/tranprint.o
                                                  ../obj/Src/trancomm.o
                                                  ../obj/Src/otherfunc.o
BcdToLong                                         ../obj/Src/NewPosApi.o
                                                  ../obj/Src/otherTxn.o
                                                  ../obj/Src/Menu.o
                                                  ../obj/Src/emvtranproc.o
                                                  ../obj/Src/tranproc.o
                                                  ../obj/Src/otherfunc.o
Bmp_Show_AmtName                                  ../obj/Src/globalvar.o
Bmp_Show_Balance                                  ../obj/Src/globalvar.o
Bmp_Show_CurrName                                 ../obj/Src/globalvar.o
Bmp_Show_LytBalance                               ../obj/Src/globalvar.o
Bmp_Show_in_PIN                                   ../obj/Src/globalvar.o
ByteToShort                                       ../obj/Src/NewPosApi.o
                                                  ../obj/Src/tranproc.o
COM_SendRecvData                                  ../obj/Src/m1_tranproc.o
CPU_EnrichWriteData                               ../obj/Src/m1_tranproc.o
CPU_ReadEnrichData                                ../obj/Src/m1_tranproc.o
CPU_ReadSaleCard                                  ../obj/Src/m1_tranproc.o
CPU_SaleWriteData                                 ../obj/Src/m1_tranproc.o
CalMAC                                            ../obj/Src/pospin.o
                                                  ../obj/Src/trancomm.o
CalcCRC16                                         ../SDK/lib/libseos.a(dll.o)
CalcTLVTotalLen                                   ../obj/Src/emvtranproc.o
CalcTime                                          ../obj/Src/NewTime.o
CallApp                                           ../SDK/lib/libseos.a(dll.o)
ChangePwdFunc                                     ../obj/Src/appsetup.o
ChangeSafePwd                                     ../obj/Src/appsetup.o
ChangeSysPwd                                      ../obj/Src/appsetup.o
Char2Long                                         ../obj/Src/emvtranproc.o
                                                  ../obj/Src/tranproc.o
CheckAdjustAmt                                    ../obj/Src/tranproc.o
CheckData                                         ../obj/Src/posfiles.o
                                                  ../obj/Src/otherTxn.o
                                                  ../obj/Src/Menu.o
                                                  ../obj/Src/tranproc.o
CheckData_Sectors2                                ../obj/Src/m1_tranproc.o
CheckDate                                         ../obj/Src/NewPosApi.o
                                                  ../obj/Src/m1_tranproc.o
                                                  ../obj/Src/tranproc.o
CheckLimitTotal                                   ../obj/Src/main.o
CheckPSamCard                                     ../obj/Src/getcard.o
                                                  ../obj/Src/Menu.o
CheckParamOpen                                    ../obj/Src/appsetup.o
CheckParamPass                                    ../obj/Src/main.o
                                                  ../obj/Src/otherfunc.o
CheckPedStatus                                    ../obj/Src/main.o
CheckPreDial                                      ../obj/Src/wireless.o
CheckQpbocMaxAmount                               ../obj/Src/qpbocProc.o
CheckRefundDataFile                               ../obj/Src/posfiles.o
                                                  ../obj/Src/tranproc.o
CheckSupPwd                                       ../obj/Src/opermanage.o
                                                  ../obj/Src/otherTxn.o
                                                  ../obj/Src/Menu.o
                                                  ../obj/Src/tranproc.o
CheckSupport                                      ../obj/Src/main.o
                                                  ../obj/Src/appsetup.o
CheckTellerPwd                                    ../obj/Src/opermanage.o
CheckTime                                         ../obj/Src/NewPosApi.o
                                                  ../obj/Src/tranproc.o
CheckYYMM                                         ../obj/Src/NewPosApi.o
                                                  ../obj/Src/getcard.o
Check_valid_purse                                 ../obj/Src/m1_tranproc.o
ChkAcceptTxnCode                                  ../obj/Src/ChkOption.o
                                                  ../obj/Src/tranproc.o
ChkContactlessCardPad                             ../obj/Src/m1_tranproc.o
ChkExTxnLog                                       ../obj/Src/ChkOption.o
ChkIfBlkCard                                      ../obj/Src/ChkOption.o
                                                  ../obj/Src/qpbocProc.o
                                                  ../obj/Src/Menu.o
                                                  ../obj/Src/emvtranproc.o
                                                  ../obj/Src/m1_tranproc.o
ChkIfCreditTxn                                    ../obj/Src/ChkOption.o
                                                  ../obj/Src/posfiles.o
ChkIfDebitTxn                                     ../obj/Src/ChkOption.o
                                                  ../obj/Src/posfiles.o
ChkIfPrtDetill                                    ../obj/Src/ChkOption.o
                                                  ../obj/Src/posfiles.o
ChkIfSaleTxn                                      ../obj/Src/ChkOption.o
                                                  ../obj/Src/posfiles.o
ChkIfSaveLog                                      ../obj/Src/ChkOption.o
                                                  ../obj/Src/tranproc.o
ChkIfUpdateLog                                    ../obj/Src/ChkOption.o
                                                  ../obj/Src/tranproc.o
ChkOnlyEcCard                                     ../obj/Src/ChkOption.o
                                                  ../obj/Src/Menu.o
                                                  ../obj/Src/otherfunc.o
ChkSetPartSaleFlag                                ../obj/Src/ChkOption.o
                                                  ../obj/Src/tranproc.o
ClearAllTxnStatus                                 ../obj/Src/posfiles.o
                                                  ../obj/Src/main.o
                                                  ../obj/Src/appsetup.o
ClearFile                                         ../obj/Src/appsetup.o
CommDial                                          ../obj/Src/Commlib.o
                                                  ../obj/Src/trancomm.o
                                                  ../obj/Src/wireless.o
CommGetErrMsg                                     ../obj/Src/Commlib.o
CommHangUp                                        ../obj/Src/trancomm.o
                                                  ../obj/Src/tranproc.o
                                                  ../obj/Src/tranprint.o
                                                  ../obj/Src/main.o
CommInitModule                                    ../obj/Src/Commlib.o
                                                  ../obj/Src/main.o
                                                  ../obj/Src/wireless.o
CommOnHook                                        ../obj/Src/Commlib.o
                                                  ../obj/Src/emvtranproc.o
                                                  ../obj/Src/trancomm.o
                                                  ../obj/Src/main.o
                                                  ../obj/Src/wireless.o
CommRxd                                           ../obj/Src/Commlib.o
                                                  ../obj/Src/trancomm.o
CommSetCfgParam                                   ../obj/Src/Commlib.o
                                                  ../obj/Src/trancomm.o
CommTxd                                           ../obj/Src/Commlib.o
                                                  ../obj/Src/trancomm.o
ComputeTransTotal                                 ../obj/Src/posfiles.o
                                                  ../obj/Src/tranproc.o
                                                  ../obj/Src/main.o
ConfirmCardPassword                               ../obj/Src/m1_tranproc.o
ConfirmDevelopersPassword                         ../obj/Src/m1_tranproc.o
Connect                                           ../SDK/lib/libftp.a(net.o)
                                                  ../SDK/lib/libftp.a(ftp.o)
ConnectHost                                       ../obj/Src/trancomm.o
ContackCardProc                                   ../obj/Src/otherfunc.o
                                                  ../obj/Src/getcard.o
ConvBcdAmount                                     ../obj/Src/NewPosApi.o
                                                  ../obj/Src/qpbocProc.o
                                                  ../obj/Src/otherTxn.o
                                                  ../obj/Src/Menu.o
                                                  ../obj/Src/m1_tranproc.o
                                                  ../obj/Src/tranprint.o
                                                  ../obj/Src/pospin.o
                                                  ../obj/Src/posfiles.o
                                                  ../obj/Src/otherfunc.o
ConvErrCode                                       ../obj/Src/otherfunc.o
                                                  ../obj/Src/main.o
DataHigh4Bit                                      ../obj/Src/NewPosApi.o
DataLow4Bit                                       ../obj/Src/NewPosApi.o
DetectCardEvent                                   ../obj/Src/getcard.o
                                                  ../obj/Src/otherTxn.o
                                                  ../obj/Src/Menu.o
DeviceTest                                        ../obj/Src/appsetup.o
DispBalance                                       ../obj/Src/pospin.o
                                                  ../obj/Src/tranproc.o
DispCardNo                                        ../obj/Src/getcard.o
                                                  ../obj/Src/otherfunc.o
DispCommErrMsg                                    ../obj/Src/Commlib.o
                                                  ../obj/Src/trancomm.o
                                                  ../obj/Src/wireless.o
DispContackLessProcessing                         ../obj/Src/getcard.o
                                                  ../obj/Src/otherfunc.o
DispDateTime                                      ../obj/Src/NewPosApi.o
                                                  ../obj/Src/otherfunc.o
DispFileErrInfo                                   ../obj/Src/posfiles.o
                                                  ../obj/Src/qpbocProc.o
                                                  ../obj/Src/m1_tranproc.o
DispICCProcessing                                 ../obj/Src/getcard.o
                                                  ../obj/Src/otherfunc.o
DispMainScreen                                    ../obj/Src/main.o
DispMenu                                          ../obj/Src/NewPosApi.o
                                                  ../obj/Src/otherTxn.o
                                                  ../obj/Src/Menu.o
                                                  ../obj/Src/otherfunc.o
                                                  ../obj/Src/opermanage.o
                                                  ../obj/Src/appsetup.o
DispMulLanguageString                             ../obj/Src/appsetup.o
                                                  ../obj/Src/qpbocProc.o
                                                  ../obj/Src/otherTxn.o
                                                  ../obj/Src/Menu.o
                                                  ../obj/Src/emvtranproc.o
                                                  ../obj/Src/m1_tranproc.o
                                                  ../obj/Src/tranproc.o
                                                  ../obj/Src/tranprint.o
                                                  ../obj/Src/trancomm.o
                                                  ../obj/Src/pospin.o
                                                  ../obj/Src/posparams.o
                                                  ../obj/Src/posfiles.o
                                                  ../obj/Src/otherfunc.o
                                                  ../obj/Src/opermanage.o
                                                  ../obj/Src/main.o
                                                  ../obj/Src/getcard.o
                                                  ../obj/Src/devicetest.o
                                                  ../obj/Src/wireless.o
DispOneTrans                                      ../obj/Src/posfiles.o
DispOrignalTrans                                  ../obj/Src/posfiles.o
DispPrnErrInfo                                    ../obj/Src/tranprint.o
DispRemoveICC                                     ../obj/Src/getcard.o
                                                  ../obj/Src/Menu.o
                                                  ../obj/Src/tranproc.o
                                                  ../obj/Src/main.o
DispResult                                        ../obj/Src/main.o
                                                  ../obj/Src/tranproc.o
                                                  ../obj/Src/trancomm.o
DispTermInfo                                      ../obj/Src/main.o
DispTransName                                     ../obj/Src/otherfunc.o
                                                  ../obj/Src/trancomm.o
                                                  ../obj/Src/getcard.o
Display2StringInRect                              ../obj/Src/Display.o
                                                  ../obj/Src/trancomm.o
                                                  ../obj/Src/wireless.o
Display2Strings                                   ../obj/Src/Display.o
DisplayApps                                       ../SDK/lib/libemv.a(qpboc_funcs.o)
DisplayLoyaltBalance                              ../obj/Src/pospin.o
                                                  ../obj/Src/tranproc.o
DisplayMainPosErrMsg                              ../obj/Src/Display.o
                                                  ../obj/Src/appsetup.o
DisplayMainPosOperFailed                          ../obj/Src/Display.o
                                                  ../obj/Src/m1_tranproc.o
                                                  ../obj/Src/appsetup.o
DisplayProcessing                                 ../obj/Src/Display.o
                                                  ../obj/Src/wireless.o
DisplayQpbocBalance                               ../obj/Src/qpbocProc.o
DisplayQpbocError                                 ../obj/Src/qpbocProc.o
                                                  ../obj/Src/otherfunc.o
DownLoadCAPK                                      ../obj/Src/tranproc.o
                                                  ../obj/Src/trancomm.o
                                                  ../obj/Src/main.o
DownLoadEmvParam                                  ../obj/Src/tranproc.o
                                                  ../obj/Src/trancomm.o
                                                  ../obj/Src/main.o
DrawRect                                          ../obj/Src/Display.o
                                                  ../obj/Src/PosLib.o
                                                  ../obj/Src/Commlib.o
                                                  ../obj/Src/wireless.o
DukptLoadInitKey                                  ../SDK/lib/libseos.a(dll.o)
DukptLoadInitKeyExt                               ../SDK/lib/libseos.a(dll.o)
EMVCoreInit                                       ../obj/Src/main.o
EMV_SHA1_Calc                                     ../SDK/lib/libemv.a(EmvSHA1.o)
                                                  ../SDK/lib/libemv.a(qpboc_funcs.o)
                                                  ../SDK/lib/libemv.a(emvtac.o)
                                                  ../SDK/lib/libemv.a(emvpinverify.o)
                                                  ../SDK/lib/libemv.a(emvoda.o)
                                                  ../SDK/lib/libemv.a(emvconfigure.o)
                                                  ../SDK/lib/libemv.a(emvcapk.o)
EMV_SHA1_Fina                                     ../SDK/lib/libemv.a(EmvSHA1.o)
EMV_SHA1_Init                                     ../SDK/lib/libemv.a(EmvSHA1.o)
EMV_SHA1_Update                                   ../SDK/lib/libemv.a(EmvSHA1.o)
EncrypteFieldTrac23                               ../obj/Src/tranproc.o
EnrichAuthenticate                                ../obj/Src/m1_tranproc.o
EnterPIN                                          ../obj/Src/pospin.o
                                                  ../obj/Src/otherTxn.o
                                                  ../obj/Src/Menu.o
                                                  ../obj/Src/emvtranproc.o
                                                  ../obj/Src/tranproc.o
ErrorBeep                                         ../obj/Src/NewPosApi.o
                                                  ../obj/Src/otherTxn.o
                                                  ../obj/Src/Menu.o
                                                  ../obj/Src/m1_tranproc.o
                                                  ../obj/Src/tranproc.o
                                                  ../obj/Src/trancomm.o
                                                  ../obj/Src/pospin.o
                                                  ../obj/Src/posfiles.o
                                                  ../obj/Src/otherfunc.o
                                                  ../obj/Src/opermanage.o
                                                  ../obj/Src/main.o
                                                  ../obj/Src/getcard.o
                                                  ../obj/Src/devicetest.o
                                                  ../obj/Src/appsetup.o
ExtractPAN                                        ../obj/Src/pospin.o
FTPParam                                          ../obj/Src/appsetup.o
FailBeep                                          ../obj/Src/NewPosApi.o
                                                  ../obj/Src/m1_tranproc.o
                                                  ../obj/Src/tranproc.o
                                                  ../obj/Src/posfiles.o
                                                  ../obj/Src/getcard.o
FindEnrichStoreFilePosition                       ../obj/Src/m1_tranproc.o
FinishDownLoad                                    ../obj/Src/tranproc.o
Func                                              ../SDK/lib/libseos.a(dll.o)
GenDownloadKeyFromMainPos                         ../obj/Src/appsetup.o
GetAllDataFromM1Card                              ../obj/Src/m1_tranproc.o
GetAndSetQpbocElement                             ../obj/Src/qpbocProc.o
                                                  ../obj/Src/emvtranproc.o
                                                  ../obj/Src/otherfunc.o
GetAuthNo                                         ../obj/Src/tranproc.o
                                                  ../obj/Src/otherTxn.o
                                                  ../obj/Src/Menu.o
GetAuthType                                       ../obj/Src/tranproc.o
GetBankChnName                                    ../obj/Src/tranprint.o
GetBlockVerifybyte                                ../obj/Src/m1_tranproc.o
GetCardNoFromTrack                                ../obj/Src/getcard.o
                                                  ../obj/Src/otherfunc.o
GetCurSocket                                      ../obj/Src/Commlib.o
GetDays                                           ../obj/Src/otherfunc.o
GetEcElementData                                  ../obj/Src/Menu.o
                                                  ../obj/Src/emvtranproc.o
GetEdEpBalance                                    ../obj/Src/getcard.o
GetEmvTrackData                                   ../obj/Src/otherfunc.o
GetEnrichFileName                                 ../obj/Src/m1_tranproc.o
                                                  ../obj/Src/posfiles.o
GetEntryMode                                      ../obj/Src/tranprint.o
GetEpoch                                          ../obj/Src/otherfunc.o
GetFtpFilePosition                                ../obj/Src/m1_tranproc.o
GetFtpFiletotal                                   ../obj/Src/m1_tranproc.o
GetKernelFileHash                                 ../SDK/lib/libseos.a(dll.o)
GetKeyDescription                                 ../obj/Src/devicetest.o
GetMAC                                            ../obj/Src/m1_tranproc.o
                                                  ../obj/Src/trancomm.o
GetMaxQpbocCfgAmount                              ../obj/Src/qpbocProc.o
GetMinSendTimesTxn                                ../obj/Src/posfiles.o
                                                  ../obj/Src/tranproc.o
GetMobileCardInfo                                 ../obj/Src/Menu.o
GetMotoDate                                       ../obj/Src/otherTxn.o
GetOfflineTxnNums                                 ../obj/Src/posfiles.o
                                                  ../obj/Src/tranproc.o
GetOldTraceNo                                     ../obj/Src/tranproc.o
                                                  ../obj/Src/otherTxn.o
                                                  ../obj/Src/Menu.o
GetOrignTxnDate                                   ../obj/Src/tranproc.o
                                                  ../obj/Src/otherTxn.o
                                                  ../obj/Src/Menu.o
GetParamfileName                                  ../obj/Src/posparams.o
                                                  ../obj/Src/main.o
GetParams                                         ../obj/Src/posparams.o
                                                  ../obj/Src/main.o
GetPosCapablity                                   ../obj/Src/main.o
GetPosTime                                        ../obj/Src/otherfunc.o
                                                  ../obj/Src/Menu.o
                                                  ../obj/Src/m1_tranproc.o
                                                  ../obj/Src/tranproc.o
                                                  ../obj/Src/NewPosApi.o
                                                  ../obj/Src/main.o
                                                  ../obj/Src/getcard.o
GetPsamId                                         ../obj/Src/m1_tranproc.o
GetPubKeyFileHash                                 ../SDK/lib/libseos.a(dll.o)
GetSecPW                                          ../obj/Src/m1_tranproc.o
GetSysRefNo                                       ../obj/Src/tranproc.o
                                                  ../obj/Src/otherTxn.o
                                                  ../obj/Src/Menu.o
GetTellNo                                         ../obj/Src/m1_tranproc.o
GetTlvValue                                       ../obj/Src/emvtranproc.o
                                                  ../obj/Src/Menu.o
                                                  ../obj/Src/tranproc.o
                                                  ../obj/Src/tranprint.o
GetTrackData                                      ../obj/Src/getcard.o
                                                  ../obj/Src/otherfunc.o
GetTransName                                      ../obj/Src/otherfunc.o
                                                  ../obj/Src/otherTxn.o
                                                  ../obj/Src/Menu.o
                                                  ../obj/Src/tranprint.o
                                                  ../obj/Src/posfiles.o
GetTransPrtName                                   ../obj/Src/tranprint.o
GetTransStatusInfo                                ../obj/Src/posfiles.o
GetTxnTableIndex                                  ../obj/Src/tranproc.o
                                                  ../obj/Src/emvtranproc.o
GetWiFiStatus                                     ../obj/Src/Commlib.o
Getsockopt                                        ../SDK/lib/libftp.a(net.o)
Hash                                              ../SDK/lib/libseos.a(dll.o)
HaveMacData                                       ../obj/Src/trancomm.o
                                                  ../obj/Src/emvtranproc.o
                                                  ../obj/Src/tranproc.o
ICNeedPIN                                         ../obj/Src/tranproc.o
                                                  ../obj/Src/pospin.o
Image__bss__ZI__Base                              ../obj/Src/init.o
Image__bss__ZI__Limit                             ../obj/Src/init.o
InATR                                             ../SDK/lib/libseos.a(dll.o)
                                                  ../obj/Src/m1_tranproc.o
InDataExchange                                    ../SDK/lib/libseos.a(dll.o)
                                                  ../obj/Src/m1_tranproc.o
InListPassive                                     ../obj/Src/m1_tranproc.o
InListPassiveTarget                               ../SDK/lib/libseos.a(dll.o)
                                                  ../obj/Src/m1_tranproc.o
                                                  ../obj/Src/m1_card/m1_card_proc.o
InPSL                                             ../SDK/lib/libseos.a(dll.o)
InRelease                                         ../SDK/lib/libseos.a(dll.o)
IncreaseTraceNo                                   ../obj/Src/trancomm.o
                                                  ../obj/Src/qpbocProc.o
                                                  ../obj/Src/emvtranproc.o
                                                  ../obj/Src/tranproc.o
InitAllTransData                                  ../obj/Src/main.o
InitCommData                                      ../obj/Src/main.o
                                                  ../obj/Src/qpbocProc.o
                                                  ../obj/Src/tranproc.o
InitPos                                           ../obj/Src/main.o
InitWiFiModule                                    ../obj/Src/Commlib.o
                                                  ../obj/Src/wireless.o
InsertCardProc                                    ../obj/Src/otherfunc.o
                                                  ../obj/Src/getcard.o
InsertEdCardProc                                  ../obj/Src/getcard.o
IsConstructedTag                                  ../obj/Src/emvtranproc.o
IsEmvCard                                         ../obj/Src/getcard.o
                                                  ../obj/Src/otherfunc.o
IsLeapYear                                        ../obj/Src/otherfunc.o
KeyboardTest                                      ../obj/Src/devicetest.o
                                                  ../obj/Src/appsetup.o
LcdTest                                           ../obj/Src/devicetest.o
                                                  ../obj/Src/appsetup.o
ListenComm                                        ../obj/Src/showDebug/showDebug.o
LoadAppParam                                      ../obj/Src/posfiles.o
                                                  ../obj/Src/main.o
LoadBlkCard                                       ../obj/Src/posfiles.o
                                                  ../obj/Src/ChkOption.o
LoadDefaultAppParam                               ../obj/Src/posfiles.o
                                                  ../obj/Src/main.o
LoadTranLog                                       ../obj/Src/posfiles.o
                                                  ../obj/Src/emvtranproc.o
                                                  ../obj/Src/tranproc.o
                                                  ../obj/Src/tranprint.o
LocateConsole                                     ../SDK/lib/libcrypto.a(fopen.o)
                                                  ../SDK/lib/libcrypto.a(console.o)
Login                                             ../obj/Src/m1_tranproc.o
                                                  ../obj/Src/main.o
LogonDivKey                                       ../obj/Src/pospin.o
                                                  ../obj/Src/tranproc.o
LogonFunc                                         ../obj/Src/otherfunc.o
LongToAmount                                      ../obj/Src/NewPosApi.o
                                                  ../obj/Src/m1_tranproc.o
LongToDec                                         ../obj/Src/NewPosApi.o
LongToStr                                         ../obj/Src/emvtranproc.o
M1SelectPrintFunc                                 ../obj/Src/otherfunc.o
M1_BlocktoBlockValue                              ../obj/Src/m1_tranproc.o
M1_Data_UpLoad                                    ../obj/Src/m1_tranproc.o
M1_Data_UpLoad_COM                                ../obj/Src/m1_tranproc.o
                                                  ../obj/Src/main.o
M1_Data_UpLoad_TCP                                ../obj/Src/m1_tranproc.o
                                                  ../obj/Src/main.o
M1_DecValue                                       ../obj/Src/m1_tranproc.o
M1_Decrement                                      ../obj/Src/m1_card/m1_card_proc.o
M1_DispErrInfo                                    ../obj/Src/m1_card/m1_card_proc.o
M1_Enrich                                         ../obj/Src/m1_tranproc.o
                                                  ../obj/Src/main.o
M1_GetCalKeyA                                     ../obj/Src/m1_tranproc.o
M1_IncValue                                       ../obj/Src/m1_tranproc.o
M1_IsCardInfoLegal                                ../obj/Src/m1_tranproc.o
M1_Que_NotUploadFile                              ../obj/Src/m1_tranproc.o
                                                  ../obj/Src/main.o
M1_Que_Sett                                       ../obj/Src/m1_tranproc.o
                                                  ../obj/Src/main.o
M1_QueryTransTotal                                ../obj/Src/posfiles.o
                                                  ../obj/Src/main.o
M1_RchAmtProcess                                  ../obj/Src/m1_tranproc.o
M1_RchSwipCardAgain                               ../obj/Src/m1_tranproc.o
M1_ReadCard                                       ../obj/Src/m1_tranproc.o
                                                  ../obj/Src/main.o
M1_ReadSector                                     ../obj/Src/m1_card/m1_card_proc.o
                                                  ../obj/Src/m1_tranproc.o
M1_Sale                                           ../obj/Src/m1_tranproc.o
                                                  ../obj/Src/main.o
M1_SaleDate_Upload                                ../obj/Src/m1_tranproc.o
                                                  ../obj/Src/main.o
M1_SaleProcess                                    ../obj/Src/m1_tranproc.o
M1_Sett                                           ../obj/Src/m1_tranproc.o
                                                  ../obj/Src/main.o
M1_SettDate_Upload                                ../obj/Src/m1_tranproc.o
                                                  ../obj/Src/main.o
M1_Sett_Prt                                       ../obj/Src/m1_tranproc.o
                                                  ../obj/Src/main.o
M1_WaitCard                                       ../obj/Src/m1_card/m1_card_proc.o
M1_WriteBlock                                     ../obj/Src/m1_card/m1_card_proc.o
                                                  ../obj/Src/m1_tranproc.o
M1_mifClose                                       ../obj/Src/m1_card/m1_card_proc.o
                                                  ../obj/Src/m1_tranproc.o
M1_mifOpen                                        ../obj/Src/m1_card/m1_card_proc.o
M1_mifResetRF                                     ../obj/Src/m1_card/m1_card_proc.o
M1_queryDetail                                    ../obj/Src/posfiles.o
                                                  ../obj/Src/main.o
M1_queryTrans                                     ../obj/Src/posfiles.o
                                                  ../obj/Src/main.o
M1reprintTrans                                    ../obj/Src/posfiles.o
MagTest                                           ../obj/Src/devicetest.o
                                                  ../obj/Src/appsetup.o
MainPosRS232Rxd                                   ../obj/Src/Rs232lib.o
                                                  ../obj/Src/appsetup.o
MainPosRS232Txd                                   ../obj/Src/Rs232lib.o
                                                  ../obj/Src/m1_tranproc.o
                                                  ../obj/Src/appsetup.o
MakeFormatCardNo                                  ../obj/Src/tranprint.o
MakeReqPacket                                     ../obj/Src/trancomm.o
MakeReversalPack                                  ../obj/Src/trancomm.o
MakeTermStatusData                                ../obj/Src/tranproc.o
MakeTlvString                                     ../obj/Src/emvtranproc.o
ManualEntryCardNo                                 ../obj/Src/getcard.o
                                                  ../obj/Src/otherTxn.o
ManualEntryExpDate                                ../obj/Src/getcard.o
                                                  ../obj/Src/otherTxn.o
MaskPan                                           ../obj/Src/getcard.o
                                                  ../obj/Src/tranprint.o
                                                  ../obj/Src/posfiles.o
MaskTrans                                         ../obj/Src/appsetup.o
MatchTrack2AndPan                                 ../obj/Src/otherfunc.o
ModifyTermCapForApp                               ../obj/Src/otherfunc.o
NacTxd                                            ../obj/Src/wireless.o
                                                  ../obj/Src/tranprint.o
                                                  ../obj/Src/Commlib.o
NeedPIN                                           ../obj/Src/tranproc.o
                                                  ../obj/Src/pospin.o
NetAccept                                         ../SDK/lib/libseos.a(dll.o)
NetBind                                           ../SDK/lib/libseos.a(dll.o)
NetClose                                          ../SDK/lib/libseos.a(dll.o)
                                                  ../SDK/lib/libftp.a(net.o)
                                                  ../obj/Src/Commlib.o
NetConnect                                        ../SDK/lib/libseos.a(dll.o)
                                                  ../SDK/lib/libftp.a(net.o)
                                                  ../obj/Src/Commlib.o
NetConnectURL                                     ../SDK/lib/libseos.a(dll.o)
NetGetPrompt                                      ../SDK/lib/libseos.a(dll.o)
NetGetTCPIPCfg                                    ../SDK/lib/libseos.a(dll.o)
                                                  ../obj/Src/wireless.o
NetGetsockopt                                     ../SDK/lib/libseos.a(dll.o)
                                                  ../SDK/lib/libftp.a(net.o)
NetListen                                         ../SDK/lib/libseos.a(dll.o)
NetRecv                                           ../SDK/lib/libseos.a(dll.o)
                                                  ../SDK/lib/libftp.a(net.o)
                                                  ../obj/Src/Commlib.o
NetRecvfrom                                       ../SDK/lib/libseos.a(dll.o)
NetSend                                           ../SDK/lib/libseos.a(dll.o)
                                                  ../SDK/lib/libftp.a(net.o)
                                                  ../SDK/lib/libcrypto.a(write.o)
                                                  ../obj/Src/Commlib.o
NetSendto                                         ../SDK/lib/libseos.a(dll.o)
NetSetTCPIPCfg                                    ../SDK/lib/libseos.a(dll.o)
                                                  ../obj/Src/wireless.o
NetSetsockopt                                     ../SDK/lib/libseos.a(dll.o)
                                                  ../SDK/lib/libftp.a(net.o)
                                                  ../obj/Src/Commlib.o
NetSocket                                         ../SDK/lib/libseos.a(dll.o)
                                                  ../SDK/lib/libftp.a(net.o)
                                                  ../obj/Src/Commlib.o
New8110_icc_Init                                  ../obj/Src/New8110_ICC.o
New8110_icc_exchange_apdu                         ../obj/Src/New8110_ICC.o
                                                  ../obj/Src/qpbocProc.o
                                                  ../obj/Src/otherfunc.o
                                                  ../obj/Src/main.o
New8110_icc_poweroff                              ../obj/Src/New8110_ICC.o
New8110_icc_powerup                               ../obj/Src/New8110_ICC.o
NewFtpDownLoad                                    ../obj/Src/LocalFtp.o
NewFtpGetFile                                     ../obj/Src/LocalFtp.o
NewFtpGetSize                                     ../obj/Src/LocalFtp.o
NewFtpLogon                                       ../obj/Src/LocalFtp.o
                                                  ../obj/Src/m1_tranproc.o
NewFtpPut                                         ../obj/Src/LocalFtp.o
                                                  ../obj/Src/m1_tranproc.o
NewFtpPutFile                                     ../obj/Src/LocalFtp.o
NewFtpQuit                                        ../obj/Src/LocalFtp.o
                                                  ../obj/Src/m1_tranproc.o
OPENSSL_cleanse                                   ../SDK/lib/libcrypto.a(mem_clr.o)
                                                  ../SDK/lib/libcrypto.a(sha1_one.o)
OffSaleGetData                                    ../obj/Src/tranproc.o
OfflineAdjust                                     ../obj/Src/tranproc.o
                                                  ../obj/Src/main.o
OfflineAuthConfirm                                ../obj/Src/tranproc.o
                                                  ../obj/Src/main.o
OfflineSale                                       ../obj/Src/tranproc.o
                                                  ../obj/Src/main.o
OkBeep                                            ../obj/Src/NewPosApi.o
                                                  ../obj/Src/Menu.o
                                                  ../obj/Src/m1_tranproc.o
                                                  ../obj/Src/tranproc.o
                                                  ../obj/Src/opermanage.o
                                                  ../obj/Src/main.o
                                                  ../obj/Src/devicetest.o
                                                  ../obj/Src/appsetup.o
OneTwoSelect                                      ../obj/Src/NewPosApi.o
                                                  ../obj/Src/tranproc.o
                                                  ../obj/Src/appsetup.o
OnlineAuthConfirm                                 ../obj/Src/tranproc.o
                                                  ../obj/Src/main.o
OnlineCommProc                                    ../obj/Src/trancomm.o
                                                  ../obj/Src/qpbocProc.o
                                                  ../obj/Src/otherTxn.o
                                                  ../obj/Src/Menu.o
                                                  ../obj/Src/tranproc.o
OnlineDownOrUp                                    ../obj/Src/tranproc.o
OnlineSale                                        ../obj/Src/tranproc.o
OptionsSelect                                     ../obj/Src/NewPosApi.o
                                                  ../obj/Src/appsetup.o
OtherFunc                                         ../obj/Src/appsetup.o
PPPCheck                                          ../SDK/lib/libseos.a(dll.o)
                                                  ../obj/Src/Commlib.o
PPPLogin                                          ../SDK/lib/libseos.a(dll.o)
                                                  ../obj/Src/Commlib.o
PPPLogout                                         ../SDK/lib/libseos.a(dll.o)
                                                  ../obj/Src/Commlib.o
PabxSetup                                         ../obj/Src/main.o
PackFTP                                           ../obj/Src/m1_tranproc.o
PackScriptData                                    ../obj/Src/emvtranproc.o
PackTLVHead                                       ../obj/Src/emvtranproc.o
PackTLVLength                                     ../obj/Src/emvtranproc.o
PackTLVTag                                        ../obj/Src/emvtranproc.o
PedDelKey                                         ../SDK/lib/libseos.a(dll.o)
                                                  ../obj/Src/pospin.o
PedGetConfig                                      ../SDK/lib/libseos.a(dll.o)
                                                  ../obj/Src/main.o
PedGetKeyInfo                                     ../SDK/lib/libseos.a(dll.o)
PedGetMac                                         ../SDK/lib/libseos.a(dll.o)
                                                  ../obj/Src/tranproc.o
                                                  ../obj/Src/pospin.o
PedGetMacDukpt                                    ../SDK/lib/libseos.a(dll.o)
PedGetOffLineCipherPin                            ../SDK/lib/libseos.a(dll.o)
PedGetOffLinePlainPin                             ../SDK/lib/libseos.a(dll.o)
PedGetPin                                         ../SDK/lib/libseos.a(dll.o)
                                                  ../obj/Src/pospin.o
PedGetPinDukpt                                    ../SDK/lib/libseos.a(dll.o)
PedGetRandom                                      ../SDK/lib/libseos.a(dll.o)
                                                  ../SDK/lib/libemv.a(emvpubfunc.o)
PedGetSensitiveTimer                              ../SDK/lib/libseos.a(dll.o)
                                                  ../obj/Src/emvtranproc.o
                                                  ../obj/Src/pospin.o
PedRebuild                                        ../SDK/lib/libseos.a(dll.o)
                                                  ../obj/Src/main.o
PedSetTdesIV                                      ../SDK/lib/libseos.a(dll.o)
PedTDEA                                           ../SDK/lib/libseos.a(dll.o)
PedWriteMacKey                                    ../SDK/lib/libseos.a(dll.o)
                                                  ../obj/Src/pospin.o
PedWriteMasterKey                                 ../SDK/lib/libseos.a(dll.o)
                                                  ../obj/Src/appsetup.o
PedWritePinKey                                    ../SDK/lib/libseos.a(dll.o)
                                                  ../obj/Src/pospin.o
PosBatchSendTran                                  ../obj/Src/tranproc.o
                                                  ../obj/Src/main.o
PosBatchUp                                        ../obj/Src/tranproc.o
PosCom                                            ../obj/Src/globalvar.o
                                                  ../obj/Src/qpbocProc.o
                                                  ../obj/Src/otherTxn.o
                                                  ../obj/Src/Menu.o
                                                  ../obj/Src/emvtranproc.o
                                                  ../obj/Src/m1_tranproc.o
                                                  ../obj/Src/tranproc.o
                                                  ../obj/Src/tranprint.o
                                                  ../obj/Src/trancomm.o
                                                  ../obj/Src/pospin.o
                                                  ../obj/Src/posfiles.o
                                                  ../obj/Src/otherfunc.o
                                                  ../obj/Src/main.o
                                                  ../obj/Src/getcard.o
PosDeviceDetect                                   ../obj/Src/devicetest.o
                                                  ../obj/Src/main.o
PosDownLoadParam                                  ../obj/Src/tranproc.o
                                                  ../obj/Src/main.o
PosGetCard                                        ../obj/Src/getcard.o
                                                  ../obj/Src/qpbocProc.o
                                                  ../obj/Src/otherTxn.o
                                                  ../obj/Src/Menu.o
                                                  ../obj/Src/tranproc.o
                                                  ../obj/Src/main.o
PosGetEdCard                                      ../obj/Src/getcard.o
                                                  ../obj/Src/Menu.o
PosGetMobileCard                                  ../obj/Src/Menu.o
PosGetOrderCard                                   ../obj/Src/otherTxn.o
PosOnlineLogoff                                   ../obj/Src/tranproc.o
                                                  ../obj/Src/main.o
PosOnlineLogon                                    ../obj/Src/tranproc.o
                                                  ../obj/Src/main.o
PosOperLogon                                      ../obj/Src/tranproc.o
                                                  ../obj/Src/otherfunc.o
PosSettleTran                                     ../obj/Src/tranproc.o
                                                  ../obj/Src/main.o
PosUpLoadParam                                    ../obj/Src/tranproc.o
                                                  ../obj/Src/main.o
PosixAccept                                       ../SDK/lib/libseos.a(dll.o)
PosixAccess                                       ../SDK/lib/libseos.a(dll.o)
PosixBind                                         ../SDK/lib/libseos.a(dll.o)
PosixCfgetispeed                                  ../SDK/lib/libseos.a(dll.o)
PosixCfgetospeed                                  ../SDK/lib/libseos.a(dll.o)
PosixCfsetispeed                                  ../SDK/lib/libseos.a(dll.o)
PosixCfsetospeed                                  ../SDK/lib/libseos.a(dll.o)
PosixCfsetspeed                                   ../SDK/lib/libseos.a(dll.o)
PosixChdir                                        ../SDK/lib/libseos.a(dll.o)
PosixChmod                                        ../SDK/lib/libseos.a(dll.o)
PosixChown                                        ../SDK/lib/libseos.a(dll.o)
PosixClose                                        ../SDK/lib/libseos.a(dll.o)
PosixClosedir                                     ../SDK/lib/libseos.a(dll.o)
PosixConnect                                      ../SDK/lib/libseos.a(dll.o)
PosixDup                                          ../SDK/lib/libseos.a(dll.o)
PosixDup2                                         ../SDK/lib/libseos.a(dll.o)
PosixExit                                         ../SDK/lib/libseos.a(dll.o)
PosixFchdir                                       ../SDK/lib/libseos.a(dll.o)
PosixFchmod                                       ../SDK/lib/libseos.a(dll.o)
PosixFchown                                       ../SDK/lib/libseos.a(dll.o)
PosixFcntl                                        ../SDK/lib/libseos.a(dll.o)
PosixFstat                                        ../SDK/lib/libseos.a(dll.o)
PosixFsync                                        ../SDK/lib/libseos.a(dll.o)
PosixFtruncate                                    ../SDK/lib/libseos.a(dll.o)
PosixGeterrno                                     ../SDK/lib/libseos.a(dll.o)
PosixGethostbyname2                               ../SDK/lib/libseos.a(dll.o)
PosixGetsockopt                                   ../SDK/lib/libseos.a(dll.o)
PosixIoctlA                                       ../SDK/lib/libseos.a(dll.o)
PosixIoctlB                                       ../SDK/lib/libseos.a(dll.o)
PosixLchown                                       ../SDK/lib/libseos.a(dll.o)
PosixLink                                         ../SDK/lib/libseos.a(dll.o)
PosixListen                                       ../SDK/lib/libseos.a(dll.o)
PosixLseek                                        ../SDK/lib/libseos.a(dll.o)
PosixLstat                                        ../SDK/lib/libseos.a(dll.o)
PosixMkdir                                        ../SDK/lib/libseos.a(dll.o)
PosixMknod                                        ../SDK/lib/libseos.a(dll.o)
PosixOpen                                         ../SDK/lib/libseos.a(dll.o)
PosixOpendir                                      ../SDK/lib/libseos.a(dll.o)
PosixPipe                                         ../SDK/lib/libseos.a(dll.o)
PosixPoll                                         ../SDK/lib/libseos.a(dll.o)
PosixRead                                         ../SDK/lib/libseos.a(dll.o)
PosixReaddir                                      ../SDK/lib/libseos.a(dll.o)
PosixRecv                                         ../SDK/lib/libseos.a(dll.o)
PosixRecvfrom                                     ../SDK/lib/libseos.a(dll.o)
PosixRename                                       ../SDK/lib/libseos.a(dll.o)
PosixRewinddir                                    ../SDK/lib/libseos.a(dll.o)
PosixRmdir                                        ../SDK/lib/libseos.a(dll.o)
PosixSelect                                       ../SDK/lib/libseos.a(dll.o)
PosixSend                                         ../SDK/lib/libseos.a(dll.o)
PosixSendto                                       ../SDK/lib/libseos.a(dll.o)
PosixSetsockopt                                   ../SDK/lib/libseos.a(dll.o)
PosixShutdown                                     ../SDK/lib/libseos.a(dll.o)
PosixSocket                                       ../SDK/lib/libseos.a(dll.o)
PosixStat                                         ../SDK/lib/libseos.a(dll.o)
PosixSymlink                                      ../SDK/lib/libseos.a(dll.o)
PosixSystem                                       ../SDK/lib/libseos.a(dll.o)
PosixTcdrain                                      ../SDK/lib/libseos.a(dll.o)
PosixTcflow                                       ../SDK/lib/libseos.a(dll.o)
PosixTcflush                                      ../SDK/lib/libseos.a(dll.o)
PosixTcgetattr                                    ../SDK/lib/libseos.a(dll.o)
PosixTcsetattr                                    ../SDK/lib/libseos.a(dll.o)
PosixTruncate                                     ../SDK/lib/libseos.a(dll.o)
PosixUnlink                                       ../SDK/lib/libseos.a(dll.o)
PosixUtime                                        ../SDK/lib/libseos.a(dll.o)
PosixWrite                                        ../SDK/lib/libseos.a(dll.o)
PreAuth                                           ../obj/Src/tranproc.o
                                                  ../obj/Src/main.o
PreAuthAdd                                        ../obj/Src/tranproc.o
                                                  ../obj/Src/main.o
PreAuthAddInput                                   ../obj/Src/tranproc.o
PreAuthGetData                                    ../obj/Src/tranproc.o
PreAuthVoidGetData                                ../obj/Src/tranproc.o
PreDial                                           ../obj/Src/wireless.o
                                                  ../obj/Src/m1_tranproc.o
                                                  ../obj/Src/tranproc.o
PrintAddtionalInfo                                ../obj/Src/tranprint.o
PrintAllErrOffTrans                               ../obj/Src/tranprint.o
                                                  ../obj/Src/tranproc.o
PrintAmount                                       ../obj/Src/tranprint.o
PrintData                                         ../obj/Src/tranprint.o
                                                  ../obj/Src/m1_tranproc.o
                                                  ../obj/Src/posfiles.o
                                                  ../obj/Src/appsetup.o
PrintDetail                                       ../obj/Src/posfiles.o
                                                  ../obj/Src/tranproc.o
                                                  ../obj/Src/main.o
PrintOneErrOffTrans                               ../obj/Src/tranprint.o
PrintParam                                        ../obj/Src/appsetup.o
Printf                                            ../SDK/lib/libcrypto.a(console.o)
                                                  ../SDK/lib/libcrypto.a(fopen.o)
PrnBigFontChnData                                 ../obj/Src/tranprint.o
                                                  ../obj/Src/posfiles.o
                                                  ../obj/Src/appsetup.o
PrnBigFontEngData                                 ../obj/Src/tranprint.o
PrnEmvParam                                       ../obj/Src/tranprint.o
                                                  ../obj/Src/appsetup.o
PrnNormalFontData                                 ../obj/Src/tranprint.o
                                                  ../obj/Src/appsetup.o
PrnSmallFontData                                  ../obj/Src/tranprint.o
                                                  ../obj/Src/m1_tranproc.o
                                                  ../obj/Src/posfiles.o
                                                  ../obj/Src/appsetup.o
ProcContEventRead                                 ../obj/Src/m1_card/m1_card_proc.o
ProcContEventWrite                                ../obj/Src/m1_card/m1_card_proc.o
                                                  ../obj/Src/m1_tranproc.o
ProcEmvTran                                       ../obj/Src/emvtranproc.o
                                                  ../obj/Src/Menu.o
                                                  ../obj/Src/trancomm.o
ProcEvent                                         ../obj/Src/main.o
ProcQpbocTran                                     ../obj/Src/qpbocProc.o
                                                  ../obj/Src/trancomm.o
ProcRspPacket                                     ../obj/Src/trancomm.o
ProcSelectTran                                    ../obj/Src/main.o
PrtM1EnrichTotal                                  ../obj/Src/tranprint.o
                                                  ../obj/Src/m1_tranproc.o
PrtM1TranEnrichTicket                             ../obj/Src/tranprint.o
                                                  ../obj/Src/m1_tranproc.o
                                                  ../obj/Src/posfiles.o
PrtM1TranSaleTicket                               ../obj/Src/tranprint.o
                                                  ../obj/Src/m1_tranproc.o
PrtNowTotal                                       ../obj/Src/tranprint.o
                                                  ../obj/Src/main.o
PrtOneTranTxn                                     ../obj/Src/tranprint.o
                                                  ../obj/Src/posfiles.o
PrtTranDetailHead                                 ../obj/Src/tranprint.o
                                                  ../obj/Src/posfiles.o
PrtTranTicket                                     ../obj/Src/tranprint.o
                                                  ../obj/Src/tranproc.o
                                                  ../obj/Src/posfiles.o
PrtTransTotal                                     ../obj/Src/tranprint.o
                                                  ../obj/Src/tranproc.o
                                                  ../obj/Src/main.o
Prt_Any_LS                                        ../obj/Src/posfiles.o
Prt_Detail_LS                                     ../obj/Src/posfiles.o
Prt_Last_LS                                       ../obj/Src/posfiles.o
Prt_Total_LS                                      ../obj/Src/posfiles.o
PubAddHeadChars                                   ../obj/Src/MathLib.o
                                                  ../obj/Src/qpbocProc.o
                                                  ../obj/Src/otherTxn.o
                                                  ../obj/Src/tranproc.o
                                                  ../obj/Src/tranprint.o
                                                  ../obj/Src/PosLib.o
PubAsc2Bcd                                        ../obj/Src/MathLib.o
                                                  ../obj/Src/otherTxn.o
                                                  ../obj/Src/Menu.o
                                                  ../obj/Src/m1_tranproc.o
                                                  ../obj/Src/tranproc.o
                                                  ../obj/Src/tranprint.o
                                                  ../obj/Src/trancomm.o
                                                  ../obj/Src/getcard.o
                                                  ../obj/Src/ChkOption.o
PubAsc2Long                                       ../obj/Src/MathLib.o
                                                  ../obj/Src/otherTxn.o
                                                  ../obj/Src/tranproc.o
                                                  ../obj/Src/posfiles.o
                                                  ../obj/Src/getcard.o
PubAscAdd                                         ../obj/Src/MathLib.o
PubAscDec                                         ../obj/Src/MathLib.o
PubAscInc                                         ../obj/Src/MathLib.o
PubAscMul                                         ../obj/Src/MathLib.o
PubAscSub                                         ../obj/Src/MathLib.o
                                                  ../obj/Src/otherTxn.o
                                                  ../obj/Src/tranprint.o
PubBcd2Asc                                        ../obj/Src/MathLib.o
                                                  ../obj/Src/qpbocProc.o
                                                  ../obj/Src/m1_tranproc.o
                                                  ../obj/Src/tranproc.o
                                                  ../obj/Src/otherfunc.o
                                                  ../obj/Src/getcard.o
PubBcd2Asc0                                       ../obj/Src/MathLib.o
                                                  ../obj/Src/qpbocProc.o
                                                  ../obj/Src/Menu.o
                                                  ../obj/Src/m1_tranproc.o
                                                  ../obj/Src/tranprint.o
                                                  ../obj/Src/trancomm.o
                                                  ../obj/Src/getcard.o
PubBcd2Long                                       ../obj/Src/MathLib.o
                                                  ../obj/Src/qpbocProc.o
                                                  ../obj/Src/otherTxn.o
                                                  ../obj/Src/Menu.o
                                                  ../obj/Src/emvtranproc.o
                                                  ../obj/Src/m1_tranproc.o
                                                  ../obj/Src/tranproc.o
                                                  ../obj/Src/pospin.o
                                                  ../obj/Src/otherfunc.o
                                                  ../obj/Src/Commlib.o
PubBcdAdd                                         ../obj/Src/MathLib.o
PubBcdDec                                         ../obj/Src/MathLib.o
PubBcdInc                                         ../obj/Src/MathLib.o
PubBcdSub                                         ../obj/Src/MathLib.o
PubBeepErr                                        ../obj/Src/PosLib.o
                                                  ../obj/Src/qpbocProc.o
                                                  ../obj/Src/otherTxn.o
                                                  ../obj/Src/Menu.o
                                                  ../obj/Src/LocalFtp.o
                                                  ../obj/Src/m1_tranproc.o
                                                  ../obj/Src/m1_card/m1_card_proc.o
                                                  ../obj/Src/tranproc.o
                                                  ../obj/Src/trancomm.o
                                                  ../obj/Src/pospin.o
                                                  ../obj/Src/posfiles.o
                                                  ../obj/Src/otherfunc.o
                                                  ../obj/Src/getcard.o
                                                  ../obj/Src/Display.o
                                                  ../obj/Src/appsetup.o
PubBeepOk                                         ../obj/Src/PosLib.o
                                                  ../obj/Src/m1_tranproc.o
PubCalcLRC                                        ../obj/Src/MathLib.o
                                                  ../obj/Src/m1_tranproc.o
                                                  ../obj/Src/wireless.o
PubCalcMac                                        ../obj/Src/PosLib.o
PubChar2Long                                      ../obj/Src/MathLib.o
                                                  ../obj/Src/qpbocProc.o
                                                  ../obj/Src/Menu.o
                                                  ../obj/Src/m1_tranproc.o
                                                  ../obj/Src/m1_card/m1_card_proc.o
                                                  ../obj/Src/tranprint.o
                                                  ../obj/Src/trancomm.o
                                                  ../obj/Src/Rs232lib.o
                                                  ../obj/Src/Commlib.o
PubChar2LongEx                                    ../obj/Src/m1_card/m1_card_proc.o
PubCheckCHNString                                 ../obj/Src/PosLib.o
PubCheckPosPower                                  ../obj/Src/PosLib.o
PubChkKeyInput                                    ../obj/Src/PosLib.o
                                                  ../obj/Src/m1_tranproc.o
                                                  ../obj/Src/m1_card/m1_card_proc.o
                                                  ../obj/Src/Commlib.o
PubConvAmount                                     ../obj/Src/PosLib.o
                                                  ../obj/Src/qpbocProc.o
                                                  ../obj/Src/otherTxn.o
                                                  ../obj/Src/Menu.o
                                                  ../obj/Src/tranprint.o
PubDes                                            ../obj/Src/PosLib.o
PubDispString                                     ../obj/Src/PosLib.o
                                                  ../obj/Src/m1_tranproc.o
                                                  ../obj/Src/posfiles.o
                                                  ../obj/Src/getcard.o
                                                  ../obj/Src/Display.o
                                                  ../obj/Src/Commlib.o
PubDisplayMsg                                     ../obj/Src/PosLib.o
                                                  ../obj/Src/Display.o
PubDisplayTitle                                   ../obj/Src/PosLib.o
                                                  ../obj/Src/m1_tranproc.o
                                                  ../obj/Src/posfiles.o
                                                  ../obj/Src/appsetup.o
                                                  ../obj/Src/wireless.o
PubFReadN                                         ../obj/Src/PosLib.o
PubFWriteN                                        ../obj/Src/PosLib.o
PubFileRead                                       ../obj/Src/PosLib.o
PubFileReadEX                                     ../obj/Src/PosLib.o
PubFileWrite                                      ../obj/Src/PosLib.o
                                                  ../obj/Src/LocalFtp.o
PubFileWriteEX                                    ../obj/Src/PosLib.o
PubGetAmount                                      ../obj/Src/PosLib.o
PubGetBoolParam                                   ../obj/Src/PosLib.o
PubGetCRC                                         ../obj/Src/MathLib.o
                                                  ../obj/Src/Rs232lib.o
                                                  ../obj/Src/appsetup.o
PubGetMenu                                        ../obj/Src/PosLib.o
                                                  ../obj/Src/wireless.o
PubGetMenuEx                                      ../obj/Src/PosLib.o
PubGetString                                      ../obj/Src/PosLib.o
                                                  ../obj/Src/otherTxn.o
                                                  ../obj/Src/Menu.o
                                                  ../obj/Src/wireless.o
PubHalt                                           ../obj/Src/PosLib.o
PubHigh4Bit                                       ../obj/Src/MathLib.o
PubLong2Bcd                                       ../obj/Src/MathLib.o
                                                  ../obj/Src/Menu.o
                                                  ../obj/Src/m1_tranproc.o
PubLong2Char                                      ../obj/Src/MathLib.o
                                                  ../obj/Src/Menu.o
                                                  ../obj/Src/emvtranproc.o
                                                  ../obj/Src/m1_tranproc.o
                                                  ../obj/Src/tranproc.o
                                                  ../obj/Src/trancomm.o
PubLong2CharEx                                    ../obj/Src/m1_tranproc.o
PubLongBeep                                       ../obj/Src/PosLib.o
                                                  ../obj/Src/appsetup.o
PubLow4Bit                                        ../obj/Src/MathLib.o
PubShowTwoMsg                                     ../obj/Src/PosLib.o
PubStrLower                                       ../obj/Src/MathLib.o
PubStrNoCaseCmp                                   ../obj/Src/MathLib.o
PubStrReverse                                     ../obj/Src/MathLib.o
PubStrUpper                                       ../obj/Src/MathLib.o
PubTrimHeadChars                                  ../obj/Src/MathLib.o
                                                  ../obj/Src/trancomm.o
                                                  ../obj/Src/PosLib.o
PubTrimSpcStr                                     ../obj/Src/MathLib.o
PubTrimStr                                        ../obj/Src/MathLib.o
PubTrimTailChars                                  ../obj/Src/MathLib.o
                                                  ../obj/Src/qpbocProc.o
                                                  ../obj/Src/Menu.o
                                                  ../obj/Src/tranprint.o
                                                  ../obj/Src/trancomm.o
                                                  ../obj/Src/otherfunc.o
PubWaitKey                                        ../obj/Src/PosLib.o
                                                  ../obj/Src/qpbocProc.o
                                                  ../obj/Src/otherTxn.o
                                                  ../obj/Src/Menu.o
                                                  ../obj/Src/LocalFtp.o
                                                  ../obj/Src/m1_tranproc.o
                                                  ../obj/Src/m1_card/m1_card_proc.o
                                                  ../obj/Src/tranproc.o
                                                  ../obj/Src/trancomm.o
                                                  ../obj/Src/posfiles.o
                                                  ../obj/Src/otherfunc.o
                                                  ../obj/Src/getcard.o
                                                  ../obj/Src/Display.o
                                                  ../obj/Src/Commlib.o
                                                  ../obj/Src/appsetup.o
                                                  ../obj/Src/wireless.o
PubXor                                            ../obj/Src/MathLib.o
                                                  ../obj/Src/m1_tranproc.o
PubYesNo                                          ../obj/Src/PosLib.o
                                                  ../obj/Src/posfiles.o
QueryBalance                                      ../obj/Src/tranproc.o
                                                  ../obj/Src/main.o
QueryEmvCapk                                      ../obj/Src/tranproc.o
QueryEmvParam                                     ../obj/Src/tranproc.o
QueryTransTotal                                   ../obj/Src/posfiles.o
                                                  ../obj/Src/tranproc.o
                                                  ../obj/Src/main.o
RSAPrivateEncrypt                                 ../SDK/lib/libseos.a(dll.o)
RSAPublicDecrypt                                  ../SDK/lib/libseos.a(dll.o)
                                                  ../SDK/lib/libemv.a(EmvRsa.o)
RSA_Calculate                                     ../SDK/lib/libemv.a(EmvRsa.o)
RSA_CalculateEx                                   ../SDK/lib/libemv.a(EmvRsa.o)
                                                  ../SDK/lib/libemv.a(qpboc_funcs.o)
                                                  ../SDK/lib/libemv.a(emvpinverify.o)
                                                  ../SDK/lib/libemv.a(emvoda.o)
                                                  ../SDK/lib/libemv.a(emvicc.o)
ReadConsole                                       ../SDK/lib/libcrypto.a(console.o)
ReadCtrlParam                                     ../obj/Src/posfiles.o
                                                  ../obj/Src/main.o
ReadDllVer                                        ../SDK/lib/libseos.a(dll.o)
ReadIccFailureFile                                ../obj/Src/qpbocProc.o
                                                  ../obj/Src/tranproc.o
ReadLastTotal                                     ../obj/Src/posfiles.o
                                                  ../obj/Src/main.o
ReadLimitTotal                                    ../obj/Src/posfiles.o
                                                  ../obj/Src/main.o
ReadM1EnrichLastTotal                             ../obj/Src/posfiles.o
                                                  ../obj/Src/m1_tranproc.o
ReadOperFile                                      ../obj/Src/posfiles.o
                                                  ../obj/Src/main.o
ReadParamsFile                                    ../obj/Src/main.o
ReadReversalTranData                              ../obj/Src/trancomm.o
                                                  ../obj/Src/emvtranproc.o
ReadScriptFile                                    ../obj/Src/posfiles.o
                                                  ../obj/Src/emvtranproc.o
ReadTermAidList                                   ../obj/Src/posfiles.o
                                                  ../obj/Src/tranproc.o
                                                  ../obj/Src/main.o
ReadYtkEnrichLog                                  ../obj/Src/posfiles.o
                                                  ../obj/Src/m1_tranproc.o
                                                  ../obj/Src/appsetup.o
Recv                                              ../SDK/lib/libftp.a(net.o)
                                                  ../SDK/lib/libftp.a(ftp.o)
RecvPacket                                        ../obj/Src/trancomm.o
RefundTran                                        ../obj/Src/tranproc.o
                                                  ../obj/Src/main.o
RefundTranGetData                                 ../obj/Src/tranproc.o
RemoveTailChars                                   ../obj/Src/otherfunc.o
                                                  ../obj/Src/qpbocProc.o
                                                  ../obj/Src/Menu.o
                                                  ../obj/Src/emvtranproc.o
ResetPsam                                         ../obj/Src/m1_tranproc.o
ResetPsam2                                        ../obj/Src/m1_tranproc.o
ResetPsamZJB                                      ../obj/Src/m1_tranproc.o
ReverseTranProc                                   ../obj/Src/trancomm.o
                                                  ../obj/Src/Menu.o
                                                  ../obj/Src/emvtranproc.o
Rs232CheckPurge                                   ../obj/Src/Rs232lib.o
                                                  ../obj/Src/m1_tranproc.o
                                                  ../obj/Src/appsetup.o
Rs232Close                                        ../obj/Src/Rs232lib.o
                                                  ../obj/Src/m1_tranproc.o
                                                  ../obj/Src/appsetup.o
Rs232Open                                         ../obj/Src/Rs232lib.o
                                                  ../obj/Src/m1_tranproc.o
                                                  ../obj/Src/appsetup.o
Rs232ResetPurge                                   ../obj/Src/Rs232lib.o
                                                  ../obj/Src/m1_tranproc.o
                                                  ../obj/Src/appsetup.o
SAMGetRandom                                      ../obj/Src/m1_tranproc.o
SHA1                                              ../SDK/lib/libcrypto.a(sha1_one.o)
                                                  ../obj/Src/emvtranproc.o
                                                  ../obj/Src/otherfunc.o
                                                  ../obj/Src/main.o
SHA1_Final                                        ../SDK/lib/libcrypto.a(sha1dgst.o)
                                                  ../SDK/lib/libcrypto.a(sha1_one.o)
SHA1_Init                                         ../SDK/lib/libcrypto.a(sha1dgst.o)
                                                  ../SDK/lib/libcrypto.a(sha1_one.o)
SHA1_Transform                                    ../SDK/lib/libcrypto.a(sha1dgst.o)
SHA1_Update                                       ../SDK/lib/libcrypto.a(sha1dgst.o)
                                                  ../SDK/lib/libcrypto.a(sha1_one.o)
SHA1_version                                      ../SDK/lib/libcrypto.a(sha1dgst.o)
SYS_FOPEN                                         ../SDK/lib/libcrypto.a(fopen.o)
SYS_FPRINTF                                       ../SDK/lib/libcrypto.a(fprintf.o)
                                                  ../SDK/lib/libcrypto.a(perror.o)
SYS_GMTIME                                        ../obj/Src/NewTime.o
                                                  ../obj/Src/LocalFtp.o
SYS_LOCALTIME                                     ../obj/Src/NewTime.o
SYS_MKTIME                                        ../obj/Src/NewTime.o
SYS_OPEN                                          ../SDK/lib/libcrypto.a(open.o)
                                                  ../SDK/lib/libcrypto.a(fopen.o)
SYS_PERROR                                        ../SDK/lib/libcrypto.a(perror.o)
SYS_STRERROR                                      ../SDK/lib/libcrypto.a(perror.o)
SYS_TIME                                          ../obj/Src/NewTime.o
                                                  ../obj/Src/LocalFtp.o
SYS_WRITE                                         ../SDK/lib/libcrypto.a(write.o)
                                                  ../SDK/lib/libcrypto.a(fprintf.o)
SaleTranGetData                                   ../obj/Src/tranproc.o
SaleVoidGetData                                   ../obj/Src/tranproc.o
SamReset                                          ../obj/Src/m1_tranproc.o
SaveAppParam                                      ../obj/Src/posfiles.o
                                                  ../obj/Src/m1_tranproc.o
                                                  ../obj/Src/tranproc.o
                                                  ../obj/Src/trancomm.o
                                                  ../obj/Src/main.o
                                                  ../obj/Src/appsetup.o
                                                  ../obj/Src/wireless.o
SaveAppParamItem                                  ../obj/Src/tranproc.o
SaveBlkCard                                       ../obj/Src/posfiles.o
                                                  ../obj/Src/tranproc.o
                                                  ../obj/Src/main.o
SaveCapkInfoItem                                  ../obj/Src/tranproc.o
SaveCtrlParam                                     ../obj/Src/posfiles.o
                                                  ../obj/Src/m1_tranproc.o
                                                  ../obj/Src/tranproc.o
                                                  ../obj/Src/opermanage.o
                                                  ../obj/Src/main.o
                                                  ../obj/Src/getcard.o
                                                  ../obj/Src/appsetup.o
                                                  ../obj/Src/wireless.o
SaveEmvAppParam                                   ../obj/Src/tranproc.o
SaveEmvCapkItem                                   ../obj/Src/tranproc.o
SaveEmvTranData                                   ../obj/Src/emvtranproc.o
                                                  ../obj/Src/qpbocProc.o
SaveIccFailureFile                                ../obj/Src/qpbocProc.o
                                                  ../obj/Src/emvtranproc.o
                                                  ../obj/Src/otherfunc.o
SaveIccFailureTranData                            ../obj/Src/qpbocProc.o
                                                  ../obj/Src/emvtranproc.o
                                                  ../obj/Src/otherfunc.o
SaveLastTotal                                     ../obj/Src/posfiles.o
                                                  ../obj/Src/tranproc.o
                                                  ../obj/Src/main.o
SaveLimitTotal                                    ../obj/Src/posfiles.o
                                                  ../obj/Src/tranproc.o
                                                  ../obj/Src/main.o
SaveLogFile                                       ../obj/Src/posfiles.o
                                                  ../obj/Src/tranproc.o
SaveM1EnrichLastTotal                             ../obj/Src/posfiles.o
                                                  ../obj/Src/m1_tranproc.o
                                                  ../obj/Src/main.o
SaveM1EnrichLog                                   ../obj/Src/posfiles.o
                                                  ../obj/Src/m1_tranproc.o
SaveNewEmvCapk                                    ../obj/Src/tranproc.o
SaveOneAid                                        ../obj/Src/tranproc.o
SavePrintICCData                                  ../obj/Src/emvtranproc.o
                                                  ../obj/Src/Menu.o
                                                  ../obj/Src/tranprint.o
SaveRefundDataFile                                ../obj/Src/posfiles.o
SaveReversalTranData                              ../obj/Src/trancomm.o
                                                  ../obj/Src/emvtranproc.o
                                                  ../obj/Src/m1_tranproc.o
SaveRspICCData                                    ../obj/Src/emvtranproc.o
SaveRspPackData                                   ../obj/Src/trancomm.o
SaveScriptData                                    ../obj/Src/emvtranproc.o
SaveScriptResult                                  ../obj/Src/emvtranproc.o
SaveToDebugLog                                    ../obj/Src/showDebug/showDebug.o
SearchCapkInfo                                    ../obj/Src/tranproc.o
SelectAndSetWIFIAP                                ../obj/Src/wireless.o
                                                  ../obj/Src/Commlib.o
SelectBookFunc                                    ../obj/Src/otherTxn.o
SelectCardUnit                                    ../obj/Src/tranproc.o
SelectEcFunc                                      ../obj/Src/Menu.o
SelectEdFunc                                      ../obj/Src/Menu.o
SelectInstalFunc                                  ../obj/Src/Menu.o
SelectLoyaltFunc                                  ../obj/Src/Menu.o
SelectMagTopupFunc                                ../obj/Src/otherTxn.o
SelectMobileFunc                                  ../obj/Src/Menu.o
SelectMotoFunc                                    ../obj/Src/otherTxn.o
SelectPosManFunc                                  ../obj/Src/otherfunc.o
                                                  ../obj/Src/main.o
SelectPrintFunc                                   ../obj/Src/otherfunc.o
SelectSamAPP                                      ../obj/Src/getcard.o
SelectSetTwo                                      ../obj/Src/appsetup.o
SelectTrans                                       ../obj/Src/otherfunc.o
                                                  ../obj/Src/main.o
Send                                              ../SDK/lib/libftp.a(net.o)
                                                  ../SDK/lib/libftp.a(ftp.o)
SendICCOffLineTrans                               ../obj/Src/tranproc.o
                                                  ../obj/Src/trancomm.o
SendOffLineTrans                                  ../obj/Src/tranproc.o
                                                  ../obj/Src/trancomm.o
SendPacket                                        ../obj/Src/trancomm.o
SendRecvPacket                                    ../obj/Src/trancomm.o
                                                  ../obj/Src/qpbocProc.o
                                                  ../obj/Src/Menu.o
                                                  ../obj/Src/emvtranproc.o
                                                  ../obj/Src/m1_tranproc.o
                                                  ../obj/Src/tranproc.o
SendScriptResult                                  ../obj/Src/emvtranproc.o
                                                  ../obj/Src/Menu.o
                                                  ../obj/Src/trancomm.o
SetAcqTransTelNo                                  ../obj/Src/wireless.o
SetCommField60                                    ../obj/Src/tranproc.o
SetCommReqField                                   ../obj/Src/tranproc.o
                                                  ../obj/Src/qpbocProc.o
                                                  ../obj/Src/otherTxn.o
                                                  ../obj/Src/Menu.o
                                                  ../obj/Src/emvtranproc.o
SetCurCommParam                                   ../obj/Src/wireless.o
SetCurCommType                                    ../obj/Src/appsetup.o
SetDispLanguage                                   ../obj/Src/appsetup.o
SetEmvTranType                                    ../obj/Src/otherfunc.o
SetErrPrnTicketNum                                ../obj/Src/appsetup.o
SetIpAddr                                         ../obj/Src/wireless.o
                                                  ../obj/Src/appsetup.o
SetIssuerName                                     ../obj/Src/emvtranproc.o
                                                  ../obj/Src/otherfunc.o
SetMasterKeys                                     ../obj/Src/appsetup.o
SetMaxOfflineNums                                 ../obj/Src/appsetup.o
SetModemParam                                     ../obj/Src/wireless.o
SetOnlineTranDE55                                 ../obj/Src/emvtranproc.o
                                                  ../obj/Src/qpbocProc.o
SetParaFunc                                       ../obj/Src/main.o
                                                  ../obj/Src/otherfunc.o
                                                  ../obj/Src/opermanage.o
SetPrintTicketNum                                 ../obj/Src/appsetup.o
SetRS232Param                                     ../obj/Src/wireless.o
SetTcpIpParam                                     ../obj/Src/wireless.o
SetTestStatus                                     ../obj/Src/appsetup.o
SetTpduOutTime                                    ../obj/Src/appsetup.o
SetTranMaxNumber                                  ../obj/Src/appsetup.o
SetTranResendTime                                 ../obj/Src/appsetup.o
SetTransFlow                                      ../obj/Src/appsetup.o
SetTransMask                                      ../obj/Src/appsetup.o
SetTxnCtrlStatus                                  ../obj/Src/posfiles.o
SetWIFIParam                                      ../obj/Src/wireless.o
SetWiFiLoaclIPCfg                                 ../obj/Src/wireless.o
SetWirelessIPPort                                 ../obj/Src/wireless.o
SetWirelessParam                                  ../obj/Src/wireless.o
Setsockopt                                        ../SDK/lib/libftp.a(net.o)
                                                  ../SDK/lib/libftp.a(ftp.o)
SetupPosPara                                      ../obj/Src/appsetup.o
                                                  ../obj/Src/otherfunc.o
                                                  ../obj/Src/main.o
SetupTerminalPara                                 ../obj/Src/appsetup.o
SetupTranFunc                                     ../obj/Src/appsetup.o
ShortToByte                                       ../obj/Src/NewPosApi.o
                                                  ../obj/Src/qpbocProc.o
                                                  ../obj/Src/otherTxn.o
                                                  ../obj/Src/Menu.o
                                                  ../obj/Src/emvtranproc.o
                                                  ../obj/Src/tranproc.o
                                                  ../obj/Src/trancomm.o
ShowGetCardScreen                                 ../obj/Src/getcard.o
                                                  ../obj/Src/otherTxn.o
                                                  ../obj/Src/Menu.o
Shutdown                                          ../SDK/lib/libftp.a(net.o)
                                                  ../SDK/lib/libftp.a(ftp.o)
Sms_Cmgd                                          ../SDK/lib/libseos.a(dll.o)
Sms_Cmgl                                          ../SDK/lib/libseos.a(dll.o)
Sms_Cmgr                                          ../SDK/lib/libseos.a(dll.o)
Sms_Cmgs                                          ../SDK/lib/libseos.a(dll.o)
Sms_GetCSCA                                       ../SDK/lib/libseos.a(dll.o)
Sms_SetCSCA                                       ../SDK/lib/libseos.a(dll.o)
SockAddrget                                       ../SDK/lib/libseos.a(dll.o)
SockAddrset                                       ../SDK/lib/libseos.a(dll.o)
                                                  ../obj/Src/Commlib.o
Socket                                            ../SDK/lib/libftp.a(net.o)
                                                  ../SDK/lib/libftp.a(ftp.o)
SocketSet                                         ../obj/Src/m1_tranproc.o
Stk_GetCurCmd                                     ../SDK/lib/libseos.a(dll.o)
Stk_Handle                                        ../SDK/lib/libseos.a(dll.o)
Stk_Init                                          ../SDK/lib/libseos.a(dll.o)
Stk_ListMenu                                      ../SDK/lib/libseos.a(dll.o)
SupChgPwd                                         ../obj/Src/opermanage.o
SupTellerFunc                                     ../obj/Src/opermanage.o
SwiTranfer                                        ../SDK/lib/libseos.a(dll.o)
SwipeCardProc                                     ../obj/Src/otherfunc.o
                                                  ../obj/Src/getcard.o
TDEA                                              ../SDK/lib/libseos.a(dll.o)
                                                  ../obj/Src/m1_tranproc.o
                                                  ../obj/Src/PosLib.o
TDEACBCDecry                                      ../obj/Src/m1_tranproc.o
                                                  ../obj/Src/trancomm.o
TDEACBCEnry                                       ../obj/Src/m1_tranproc.o
TellerAdd                                         ../obj/Src/opermanage.o
TellerChgPwd                                      ../obj/Src/opermanage.o
TellerDel                                         ../obj/Src/opermanage.o
TellerLogon                                       ../obj/Src/opermanage.o
                                                  ../obj/Src/tranproc.o
TellerManageMenu                                  ../obj/Src/opermanage.o
TellerRunLock                                     ../obj/Src/opermanage.o
                                                  ../obj/Src/main.o
TellerShow                                        ../obj/Src/opermanage.o
TermCheck                                         ../obj/Src/main.o
TestPrint                                         ../obj/Src/appsetup.o
TestResponse                                      ../obj/Src/tranproc.o
                                                  ../obj/Src/main.o
                                                  ../obj/Src/appsetup.o
TipperSetup                                       ../obj/Src/appsetup.o
TrTable                                           ../obj/Src/globalvar.o
                                                  ../obj/Src/tranproc.o
TranNeedIncTraceNo                                ../obj/Src/trancomm.o
TranNeedReversal                                  ../obj/Src/trancomm.o
TransBatchUpLoadFailureTxn                        ../obj/Src/tranproc.o
TransBatchUpLoadIccAACTxn                         ../obj/Src/tranproc.o
TransBatchUpLoadIccFailureTxn                     ../obj/Src/tranproc.o
TransBatchUploadQpbocFailureTxnLog                ../obj/Src/qpbocProc.o
                                                  ../obj/Src/tranproc.o
TransBookSale                                     ../obj/Src/otherTxn.o
                                                  ../obj/Src/main.o
TransDownloadBlkCard                              ../obj/Src/tranproc.o
                                                  ../obj/Src/otherfunc.o
TransEcBalance                                    ../obj/Src/Menu.o
                                                  ../obj/Src/main.o
TransEcQuickSale                                  ../obj/Src/qpbocProc.o
                                                  ../obj/Src/main.o
TransEcRefund                                     ../obj/Src/Menu.o
                                                  ../obj/Src/main.o
TransEcSale                                       ../obj/Src/Menu.o
                                                  ../obj/Src/main.o
TransEcTopup                                      ../obj/Src/Menu.o
                                                  ../obj/Src/main.o
TransEcViewRecord                                 ../obj/Src/Menu.o
                                                  ../obj/Src/main.o
TransEcVoidTopup                                  ../obj/Src/Menu.o
                                                  ../obj/Src/main.o
TransEdBalance                                    ../obj/Src/Menu.o
                                                  ../obj/Src/main.o
TransEdSale                                       ../obj/Src/Menu.o
                                                  ../obj/Src/main.o
TransEdTopup                                      ../obj/Src/Menu.o
                                                  ../obj/Src/main.o
TransEdViewRecord                                 ../obj/Src/Menu.o
                                                  ../obj/Src/main.o
TransInstallment                                  ../obj/Src/Menu.o
                                                  ../obj/Src/main.o
TransLoyalt                                       ../obj/Src/Menu.o
                                                  ../obj/Src/main.o
TransLytLogon                                     ../obj/Src/Menu.o
                                                  ../obj/Src/main.o
TransMagTopupAcct                                 ../obj/Src/otherTxn.o
                                                  ../obj/Src/main.o
TransMagTopupCash                                 ../obj/Src/otherTxn.o
                                                  ../obj/Src/main.o
TransMobileAuth                                   ../obj/Src/Menu.o
                                                  ../obj/Src/main.o
TransMobileBalance                                ../obj/Src/Menu.o
                                                  ../obj/Src/main.o
TransMobilePreAuth                                ../obj/Src/Menu.o
                                                  ../obj/Src/main.o
TransMobileRefund                                 ../obj/Src/Menu.o
                                                  ../obj/Src/main.o
TransMobileSale                                   ../obj/Src/Menu.o
                                                  ../obj/Src/main.o
TransMobileVoidPreAuth                            ../obj/Src/Menu.o
                                                  ../obj/Src/main.o
TransMotoAuth                                     ../obj/Src/otherTxn.o
                                                  ../obj/Src/main.o
TransMotoPreAuth                                  ../obj/Src/otherTxn.o
                                                  ../obj/Src/main.o
TransMotoRefund                                   ../obj/Src/otherTxn.o
                                                  ../obj/Src/main.o
TransMotoSale                                     ../obj/Src/otherTxn.o
                                                  ../obj/Src/main.o
TransMotoVoidPreAuth                              ../obj/Src/otherTxn.o
                                                  ../obj/Src/main.o
TransPartSale                                     ../obj/Src/otherTxn.o
                                                  ../obj/Src/tranproc.o
TransQpbocPreProc                                 ../obj/Src/qpbocProc.o
TransQueryLoyalt                                  ../obj/Src/Menu.o
                                                  ../obj/Src/main.o
TransRefundLoyalt                                 ../obj/Src/Menu.o
                                                  ../obj/Src/main.o
TransValidAcct                                    ../obj/Src/otherTxn.o
TransVoidBookSale                                 ../obj/Src/otherTxn.o
                                                  ../obj/Src/main.o
TransVoidInstal                                   ../obj/Src/Menu.o
                                                  ../obj/Src/main.o
TransVoidLoyalt                                   ../obj/Src/Menu.o
                                                  ../obj/Src/main.o
TransVoidMobileSale                               ../obj/Src/Menu.o
                                                  ../obj/Src/main.o
TransVoidMotoSale                                 ../obj/Src/otherTxn.o
                                                  ../obj/Src/main.o
TransmagTopupConfirm                              ../obj/Src/otherTxn.o
TrickleFeedICOffLineTxn                           ../obj/Src/trancomm.o
                                                  ../obj/Src/tranproc.o
TrickleFeedOffLineTxn                             ../obj/Src/trancomm.o
                                                  ../obj/Src/tranproc.o
TxtToEnv                                          ../obj/Src/main.o
UnpackTlvData                                     ../obj/Src/tranproc.o
UpDateIccFailureFile                              ../obj/Src/qpbocProc.o
                                                  ../obj/Src/tranproc.o
UpdataTxnCtrlStatus                               ../obj/Src/posfiles.o
                                                  ../obj/Src/tranproc.o
UpdateCoreCapkInfo                                ../obj/Src/tranproc.o
UpdateEcRevFile                                   ../obj/Src/emvtranproc.o
UpdateEmvRevFile                                  ../obj/Src/emvtranproc.o
UpdateEntryModeByPIN                              ../obj/Src/tranproc.o
                                                  ../obj/Src/emvtranproc.o
UpdateLogFile                                     ../obj/Src/posfiles.o
                                                  ../obj/Src/tranproc.o
UpdateParameters                                  ../obj/Src/tranproc.o
UpdateReversalFile                                ../obj/Src/trancomm.o
                                                  ../obj/Src/Menu.o
                                                  ../obj/Src/emvtranproc.o
UpdateTranLog                                     ../obj/Src/posfiles.o
                                                  ../obj/Src/tranproc.o
Ussd_Cmd                                          ../SDK/lib/libseos.a(dll.o)
VerifyStartUse                                    ../obj/Src/m1_tranproc.o
VerifyUserPwd                                     ../obj/Src/getcard.o
Verifybyte                                        ../obj/Src/m1_tranproc.o
VeryfyCard_Sectors1                               ../obj/Src/m1_tranproc.o
VeryfyWalletData                                  ../obj/Src/m1_tranproc.o
ViewEmvResult                                     ../obj/Src/otherfunc.o
ViewIccFailureLog                                 ../obj/Src/qpbocProc.o
                                                  ../obj/Src/otherfunc.o
VoidPreAuth                                       ../obj/Src/tranproc.o
                                                  ../obj/Src/main.o
VoidSaleAuth                                      ../obj/Src/tranproc.o
                                                  ../obj/Src/main.o
WPhoneAnswer                                      ../SDK/lib/libseos.a(dll.o)
WPhoneCall                                        ../SDK/lib/libseos.a(dll.o)
WPhoneHangUp                                      ../SDK/lib/libseos.a(dll.o)
WPhoneSendDTMF                                    ../SDK/lib/libseos.a(dll.o)
WPhoneStatus                                      ../SDK/lib/libseos.a(dll.o)
WPhoneStatusEx                                    ../SDK/lib/libseos.a(dll.o)
WaitEvent                                         ../obj/Src/otherfunc.o
                                                  ../obj/Src/main.o
WaitRemoveICC                                     ../obj/Src/getcard.o
                                                  ../obj/Src/otherfunc.o
                                                  ../obj/Src/main.o
WifiGetCurConnect                                 ../SDK/lib/libseos.a(dll.o)
                                                  ../obj/Src/Commlib.o
                                                  ../obj/Src/wireless.o
WifiGetLocalIP                                    ../SDK/lib/libseos.a(dll.o)
                                                  ../obj/Src/Commlib.o
                                                  ../obj/Src/wireless.o
WifiGetMAC                                        ../SDK/lib/libseos.a(dll.o)
WifiPing                                          ../SDK/lib/libseos.a(dll.o)
WifiScanAP                                        ../SDK/lib/libseos.a(dll.o)
                                                  ../obj/Src/wireless.o
WifiSetAP                                         ../SDK/lib/libseos.a(dll.o)
                                                  ../obj/Src/wireless.o
WifiSetDefAP                                      ../SDK/lib/libseos.a(dll.o)
                                                  ../obj/Src/wireless.o
WifiSetParms                                      ../SDK/lib/libseos.a(dll.o)
                                                  ../obj/Src/wireless.o
WifiSoftReset                                     ../SDK/lib/libseos.a(dll.o)
                                                  ../obj/Src/wireless.o
WirelessClose                                     ../obj/Src/Commlib.o
WnetCheckSim                                      ../SDK/lib/libseos.a(dll.o)
                                                  ../obj/Src/Commlib.o
WnetDnsResolve                                    ../SDK/lib/libseos.a(dll.o)
WnetGetIMEI                                       ../SDK/lib/libseos.a(dll.o)
WnetGetInfo                                       ../SDK/lib/libseos.a(dll.o)
WnetInit                                          ../SDK/lib/libseos.a(dll.o)
                                                  ../obj/Src/Commlib.o
                                                  ../obj/Src/wireless.o
WnetInputSimPin                                   ../SDK/lib/libseos.a(dll.o)
                                                  ../obj/Src/Commlib.o
WnetReset                                         ../SDK/lib/libseos.a(dll.o)
                                                  ../obj/Src/Commlib.o
WnetSelectModule                                  ../SDK/lib/libseos.a(dll.o)
WnetSignal                                        ../SDK/lib/libseos.a(dll.o)
                                                  ../obj/Src/Commlib.o
Wnet_GetDnsServer                                 ../SDK/lib/libseos.a(dll.o)
Wnet_SetDnsServer                                 ../SDK/lib/libseos.a(dll.o)
WriteConsole                                      ../SDK/lib/libcrypto.a(console.o)
                                                  ../SDK/lib/libcrypto.a(write.o)
WriteEnrichFtpFile                                ../obj/Src/posfiles.o
                                                  ../obj/Src/m1_tranproc.o
WriteOperFile                                     ../obj/Src/posfiles.o
                                                  ../obj/Src/opermanage.o
                                                  ../obj/Src/main.o
WriteScriptFile                                   ../obj/Src/posfiles.o
                                                  ../obj/Src/emvtranproc.o
_FreeProcessMem                                   ../SDK/lib/liballoc.a(memmgr.o)
_GLOBAL_OFFSET_TABLE_                             /cygdrive/c/ArmToolchain/bin/../lib/gcc/arm-linux-uclibc/4.1.2/libgcc.a(_divdi3.o)
                                                  /cygdrive/c/ArmToolchain/arm-linux-uclibc/bin/../../lib/libc.a(fseeko64.os)
                                                  /cygdrive/c/ArmToolchain/arm-linux-uclibc/bin/../../lib/libc.a(inet_aton.os)
                                                  /cygdrive/c/ArmToolchain/arm-linux-uclibc/bin/../../lib/libc.a(_fpmaxtostr.os)
                                                  /cygdrive/c/ArmToolchain/arm-linux-uclibc/bin/../../lib/libc.a(mbsnrtowcs.os)
                                                  /cygdrive/c/ArmToolchain/arm-linux-uclibc/bin/../../lib/libc.a(mbsrtowcs.os)
                                                  /cygdrive/c/ArmToolchain/arm-linux-uclibc/bin/../../lib/libc.a(_stdlib_strto_l.os)
                                                  /cygdrive/c/ArmToolchain/arm-linux-uclibc/bin/../../lib/libc.a(ntop.os)
                                                  /cygdrive/c/ArmToolchain/arm-linux-uclibc/bin/../../lib/libc.a(__xpg_strerror_r.os)
                                                  /cygdrive/c/ArmToolchain/arm-linux-uclibc/bin/../../lib/libc.a(fputws.os)
                                                  /cygdrive/c/ArmToolchain/arm-linux-uclibc/bin/../../lib/libc.a(vfwprintf.os)
                                                  /cygdrive/c/ArmToolchain/arm-linux-uclibc/bin/../../lib/libc.a(_ppfs_parsespec.os)
                                                  /cygdrive/c/ArmToolchain/arm-linux-uclibc/bin/../../lib/libc.a(vfprintf.os)
                                                  /cygdrive/c/ArmToolchain/arm-linux-uclibc/bin/../../lib/libc.a(_stdio.os)
                                                  /cygdrive/c/ArmToolchain/arm-linux-uclibc/bin/../../lib/libc.a(printf.os)
                                                  /cygdrive/c/ArmToolchain/arm-linux-uclibc/bin/../../lib/libc.a(toupper.os)
                                                  /cygdrive/c/ArmToolchain/arm-linux-uclibc/bin/../../lib/libc.a(tolower.os)
_HeapInit                                         ../SDK/lib/liballoc.a(memmgr.o)
                                                  ../obj/Src/main.o
_MemCheck                                         ../SDK/lib/liballoc.a(memmgr.o)
_MemLargest                                       ../SDK/lib/liballoc.a(memmgr.o)
__C_ctype_b                                       /cygdrive/c/ArmToolchain/arm-linux-uclibc/bin/../../lib/libc.a(__C_ctype_b.os)
__C_ctype_b_data                                  /cygdrive/c/ArmToolchain/arm-linux-uclibc/bin/../../lib/libc.a(__C_ctype_b.os)
__C_ctype_tolower                                 /cygdrive/c/ArmToolchain/arm-linux-uclibc/bin/../../lib/libc.a(__C_ctype_tolower.os)
__C_ctype_tolower_data                            /cygdrive/c/ArmToolchain/arm-linux-uclibc/bin/../../lib/libc.a(__C_ctype_tolower.os)
__C_ctype_toupper                                 /cygdrive/c/ArmToolchain/arm-linux-uclibc/bin/../../lib/libc.a(__C_ctype_toupper.os)
__C_ctype_toupper_data                            /cygdrive/c/ArmToolchain/arm-linux-uclibc/bin/../../lib/libc.a(__C_ctype_toupper.os)
__GI___C_ctype_b                                  /cygdrive/c/ArmToolchain/arm-linux-uclibc/bin/../../lib/libc.a(__C_ctype_b.os)
__GI___C_ctype_b_data                             /cygdrive/c/ArmToolchain/arm-linux-uclibc/bin/../../lib/libc.a(__C_ctype_b.os)
__GI___C_ctype_tolower                            /cygdrive/c/ArmToolchain/arm-linux-uclibc/bin/../../lib/libc.a(__C_ctype_tolower.os)
__GI___C_ctype_tolower_data                       /cygdrive/c/ArmToolchain/arm-linux-uclibc/bin/../../lib/libc.a(__C_ctype_tolower.os)
__GI___C_ctype_toupper                            /cygdrive/c/ArmToolchain/arm-linux-uclibc/bin/../../lib/libc.a(__C_ctype_toupper.os)
__GI___C_ctype_toupper_data                       /cygdrive/c/ArmToolchain/arm-linux-uclibc/bin/../../lib/libc.a(__C_ctype_toupper.os)
__GI___ctype_b                                    /cygdrive/c/ArmToolchain/arm-linux-uclibc/bin/../../lib/libc.a(__C_ctype_b.os)
                                                  /cygdrive/c/ArmToolchain/arm-linux-uclibc/bin/../../lib/libc.a(inet_aton.os)
                                                  /cygdrive/c/ArmToolchain/arm-linux-uclibc/bin/../../lib/libc.a(_stdlib_strto_l.os)
                                                  /cygdrive/c/ArmToolchain/arm-linux-uclibc/bin/../../lib/libc.a(_ppfs_parsespec.os)
__GI___ctype_tolower                              /cygdrive/c/ArmToolchain/arm-linux-uclibc/bin/../../lib/libc.a(__C_ctype_tolower.os)
                                                  /cygdrive/c/ArmToolchain/arm-linux-uclibc/bin/../../lib/libc.a(tolower.os)
__GI___ctype_toupper                              /cygdrive/c/ArmToolchain/arm-linux-uclibc/bin/../../lib/libc.a(__C_ctype_toupper.os)
                                                  /cygdrive/c/ArmToolchain/arm-linux-uclibc/bin/../../lib/libc.a(toupper.os)
__GI___glibc_strerror_r                           /cygdrive/c/ArmToolchain/arm-linux-uclibc/bin/../../lib/libc.a(__glibc_strerror_r.os)
                                                  /cygdrive/c/ArmToolchain/arm-linux-uclibc/bin/../../lib/libc.a(vfwprintf.os)
                                                  /cygdrive/c/ArmToolchain/arm-linux-uclibc/bin/../../lib/libc.a(vfprintf.os)
__GI___xpg_strerror_r                             /cygdrive/c/ArmToolchain/arm-linux-uclibc/bin/../../lib/libc.a(__xpg_strerror_r.os)
                                                  /cygdrive/c/ArmToolchain/arm-linux-uclibc/bin/../../lib/libc.a(__glibc_strerror_r.os)
__GI_atoi                                         /cygdrive/c/ArmToolchain/arm-linux-uclibc/bin/../../lib/libc.a(atol.os)
__GI_atol                                         /cygdrive/c/ArmToolchain/arm-linux-uclibc/bin/../../lib/libc.a(atol.os)
__GI_btowc                                        /cygdrive/c/ArmToolchain/arm-linux-uclibc/bin/../../lib/libc.a(btowc.os)
                                                  /cygdrive/c/ArmToolchain/arm-linux-uclibc/bin/../../lib/libc.a(vfwprintf.os)
__GI_close                                        /cygdrive/c/ArmToolchain/arm-linux-uclibc/bin/../../lib/libc.a(close.os)
                                                  /cygdrive/c/ArmToolchain/arm-linux-uclibc/bin/../../lib/libc.a(_cs_funcs.os)
__GI_fputs_unlocked                               /cygdrive/c/ArmToolchain/arm-linux-uclibc/bin/../../lib/libc.a(fputs_unlocked.os)
                                                  /cygdrive/c/ArmToolchain/arm-linux-uclibc/bin/../../lib/libc.a(vfprintf.os)
__GI_fputws                                       /cygdrive/c/ArmToolchain/arm-linux-uclibc/bin/../../lib/libc.a(fputws.os)
                                                  /cygdrive/c/ArmToolchain/arm-linux-uclibc/bin/../../lib/libc.a(vfwprintf.os)
__GI_fputws_unlocked                              /cygdrive/c/ArmToolchain/arm-linux-uclibc/bin/../../lib/libc.a(fputws_unlocked.os)
                                                  /cygdrive/c/ArmToolchain/arm-linux-uclibc/bin/../../lib/libc.a(fputws.os)
__GI_fseek                                        /cygdrive/c/ArmToolchain/arm-linux-uclibc/bin/../../lib/libc.a(fseeko.os)
                                                  /cygdrive/c/ArmToolchain/arm-linux-uclibc/bin/../../lib/libc.a(_trans2w.os)
__GI_fseeko64                                     /cygdrive/c/ArmToolchain/arm-linux-uclibc/bin/../../lib/libc.a(fseeko64.os)
                                                  /cygdrive/c/ArmToolchain/arm-linux-uclibc/bin/../../lib/libc.a(fseeko.os)
__GI_fwrite_unlocked                              /cygdrive/c/ArmToolchain/arm-linux-uclibc/bin/../../lib/libc.a(fwrite_unlocked.os)
                                                  /cygdrive/c/ArmToolchain/arm-linux-uclibc/bin/../../lib/libc.a(fputs_unlocked.os)
__GI_getpid                                       /cygdrive/c/ArmToolchain/arm-linux-uclibc/bin/../../lib/libc.a(getpid.os)
                                                  /cygdrive/c/ArmToolchain/arm-linux-uclibc/bin/../../lib/libc.a(raise.os)
__GI_inet_addr                                    /cygdrive/c/ArmToolchain/arm-linux-uclibc/bin/../../lib/libc.a(inet_makeaddr.os)
__GI_inet_aton                                    /cygdrive/c/ArmToolchain/arm-linux-uclibc/bin/../../lib/libc.a(inet_aton.os)
                                                  /cygdrive/c/ArmToolchain/arm-linux-uclibc/bin/../../lib/libc.a(inet_makeaddr.os)
__GI_inet_ntop                                    /cygdrive/c/ArmToolchain/arm-linux-uclibc/bin/../../lib/libc.a(ntop.os)
__GI_inet_pton                                    /cygdrive/c/ArmToolchain/arm-linux-uclibc/bin/../../lib/libc.a(ntop.os)
__GI_ioctl                                        /cygdrive/c/ArmToolchain/arm-linux-uclibc/bin/../../lib/libc.a(ioctl.os)
                                                  /cygdrive/c/ArmToolchain/arm-linux-uclibc/bin/../../lib/libc.a(tcgetattr.os)
__GI_isatty                                       /cygdrive/c/ArmToolchain/arm-linux-uclibc/bin/../../lib/libc.a(isatty.os)
                                                  /cygdrive/c/ArmToolchain/arm-linux-uclibc/bin/../../lib/libc.a(_stdio.os)
__GI_kill                                         /cygdrive/c/ArmToolchain/arm-linux-uclibc/bin/../../lib/libc.a(kill.os)
                                                  /cygdrive/c/ArmToolchain/arm-linux-uclibc/bin/../../lib/libc.a(raise.os)
__GI_lseek64                                      /cygdrive/c/ArmToolchain/arm-linux-uclibc/bin/../../lib/libc.a(llseek.os)
                                                  /cygdrive/c/ArmToolchain/arm-linux-uclibc/bin/../../lib/libc.a(_cs_funcs.os)
__GI_mbsnrtowcs                                   /cygdrive/c/ArmToolchain/arm-linux-uclibc/bin/../../lib/libc.a(mbsnrtowcs.os)
                                                  /cygdrive/c/ArmToolchain/arm-linux-uclibc/bin/../../lib/libc.a(mbsrtowcs.os)
__GI_mbsrtowcs                                    /cygdrive/c/ArmToolchain/arm-linux-uclibc/bin/../../lib/libc.a(mbsrtowcs.os)
                                                  /cygdrive/c/ArmToolchain/arm-linux-uclibc/bin/../../lib/libc.a(vfwprintf.os)
__GI_memchr                                       /cygdrive/c/ArmToolchain/arm-linux-uclibc/bin/../../lib/libc.a(memchr.os)
                                                  /cygdrive/c/ArmToolchain/arm-linux-uclibc/bin/../../lib/libc.a(_fwrite.os)
__GI_memcmp                                       /cygdrive/c/ArmToolchain/arm-linux-uclibc/bin/../../lib/libc.a(memcmp.os)
__GI_memcpy                                       /cygdrive/c/ArmToolchain/arm-linux-uclibc/bin/../../lib/libc.a(memcpy.os)
                                                  /cygdrive/c/ArmToolchain/arm-linux-uclibc/bin/../../lib/libc.a(mempcpy.os)
                                                  /cygdrive/c/ArmToolchain/arm-linux-uclibc/bin/../../lib/libc.a(_fwrite.os)
                                                  /cygdrive/c/ArmToolchain/arm-linux-uclibc/bin/../../lib/libc.a(ntop.os)
                                                  /cygdrive/c/ArmToolchain/arm-linux-uclibc/bin/../../lib/libc.a(__xpg_strerror_r.os)
                                                  /cygdrive/c/ArmToolchain/arm-linux-uclibc/bin/../../lib/libc.a(_ppfs_parsespec.os)
                                                  /cygdrive/c/ArmToolchain/arm-linux-uclibc/bin/../../lib/libc.a(_stdio.os)
__GI_memmove                                      /cygdrive/c/ArmToolchain/arm-linux-uclibc/bin/../../lib/libc.a(memmove.os)
__GI_mempcpy                                      /cygdrive/c/ArmToolchain/arm-linux-uclibc/bin/../../lib/libc.a(mempcpy.os)
                                                  /cygdrive/c/ArmToolchain/arm-linux-uclibc/bin/../../lib/libc.a(tcgetattr.os)
__GI_memrchr                                      /cygdrive/c/ArmToolchain/arm-linux-uclibc/bin/../../lib/libc.a(memrchr.os)
                                                  /cygdrive/c/ArmToolchain/arm-linux-uclibc/bin/../../lib/libc.a(_fwrite.os)
__GI_memset                                       /cygdrive/c/ArmToolchain/arm-linux-uclibc/bin/../../lib/libc.a(memset.os)
                                                  /cygdrive/c/ArmToolchain/arm-linux-uclibc/bin/../../lib/libc.a(_fpmaxtostr.os)
                                                  /cygdrive/c/ArmToolchain/arm-linux-uclibc/bin/../../lib/libc.a(tcgetattr.os)
                                                  /cygdrive/c/ArmToolchain/arm-linux-uclibc/bin/../../lib/libc.a(vfwprintf.os)
                                                  /cygdrive/c/ArmToolchain/arm-linux-uclibc/bin/../../lib/libc.a(_ppfs_init.os)
__GI_printf                                       /cygdrive/c/ArmToolchain/arm-linux-uclibc/bin/../../lib/libc.a(printf.os)
__GI_raise                                        /cygdrive/c/ArmToolchain/arm-linux-uclibc/bin/../../lib/libc.a(raise.os)
__GI_read                                         /cygdrive/c/ArmToolchain/arm-linux-uclibc/bin/../../lib/libc.a(read.os)
                                                  /cygdrive/c/ArmToolchain/arm-linux-uclibc/bin/../../lib/libc.a(_cs_funcs.os)
__GI_snprintf                                     /cygdrive/c/ArmToolchain/arm-linux-uclibc/bin/../../lib/libc.a(snprintf.os)
__GI_sprintf                                      /cygdrive/c/ArmToolchain/arm-linux-uclibc/bin/../../lib/libc.a(sprintf.os)
__GI_strcat                                       /cygdrive/c/ArmToolchain/arm-linux-uclibc/bin/../../lib/libc.a(strcat.os)
__GI_strchr                                       /cygdrive/c/ArmToolchain/arm-linux-uclibc/bin/../../lib/libc.a(strchr.os)
                                                  /cygdrive/c/ArmToolchain/arm-linux-uclibc/bin/../../lib/libc.a(strrchr.os)
__GI_strcmp                                       /cygdrive/c/ArmToolchain/arm-linux-uclibc/bin/../../lib/libc.a(strcmp.os)
__GI_strcoll                                      /cygdrive/c/ArmToolchain/arm-linux-uclibc/bin/../../lib/libc.a(strcmp.os)
__GI_strcpy                                       /cygdrive/c/ArmToolchain/arm-linux-uclibc/bin/../../lib/libc.a(strcpy.os)
                                                  /cygdrive/c/ArmToolchain/arm-linux-uclibc/bin/../../lib/libc.a(ntop.os)
__GI_strlen                                       /cygdrive/c/ArmToolchain/arm-linux-uclibc/bin/../../lib/libc.a(strlen.os)
                                                  /cygdrive/c/ArmToolchain/arm-linux-uclibc/bin/../../lib/libc.a(ntop.os)
                                                  /cygdrive/c/ArmToolchain/arm-linux-uclibc/bin/../../lib/libc.a(__xpg_strerror_r.os)
                                                  /cygdrive/c/ArmToolchain/arm-linux-uclibc/bin/../../lib/libc.a(fputs_unlocked.os)
                                                  /cygdrive/c/ArmToolchain/arm-linux-uclibc/bin/../../lib/libc.a(vfwprintf.os)
                                                  /cygdrive/c/ArmToolchain/arm-linux-uclibc/bin/../../lib/libc.a(vfprintf.os)
__GI_strncpy                                      /cygdrive/c/ArmToolchain/arm-linux-uclibc/bin/../../lib/libc.a(strncpy.os)
__GI_strnlen                                      /cygdrive/c/ArmToolchain/arm-linux-uclibc/bin/../../lib/libc.a(strnlen.os)
                                                  /cygdrive/c/ArmToolchain/arm-linux-uclibc/bin/../../lib/libc.a(vfprintf.os)
__GI_strrchr                                      /cygdrive/c/ArmToolchain/arm-linux-uclibc/bin/../../lib/libc.a(strrchr.os)
__GI_strstr                                       /cygdrive/c/ArmToolchain/arm-linux-uclibc/bin/../../lib/libc.a(strstr.os)
__GI_strtol                                       /cygdrive/c/ArmToolchain/arm-linux-uclibc/bin/../../lib/libc.a(strtol.os)
                                                  /cygdrive/c/ArmToolchain/arm-linux-uclibc/bin/../../lib/libc.a(atol.os)
__GI_tcgetattr                                    /cygdrive/c/ArmToolchain/arm-linux-uclibc/bin/../../lib/libc.a(tcgetattr.os)
                                                  /cygdrive/c/ArmToolchain/arm-linux-uclibc/bin/../../lib/libc.a(isatty.os)
__GI_tolower                                      /cygdrive/c/ArmToolchain/arm-linux-uclibc/bin/../../lib/libc.a(tolower.os)
__GI_toupper                                      /cygdrive/c/ArmToolchain/arm-linux-uclibc/bin/../../lib/libc.a(toupper.os)
__GI_vfprintf                                     /cygdrive/c/ArmToolchain/arm-linux-uclibc/bin/../../lib/libc.a(vfprintf.os)
                                                  /cygdrive/c/ArmToolchain/arm-linux-uclibc/bin/../../lib/libc.a(vsnprintf.os)
                                                  /cygdrive/c/ArmToolchain/arm-linux-uclibc/bin/../../lib/libc.a(printf.os)
__GI_vfwprintf                                    /cygdrive/c/ArmToolchain/arm-linux-uclibc/bin/../../lib/libc.a(vfwprintf.os)
                                                  /cygdrive/c/ArmToolchain/arm-linux-uclibc/bin/../../lib/libc.a(vswprintf.os)
__GI_vsnprintf                                    /cygdrive/c/ArmToolchain/arm-linux-uclibc/bin/../../lib/libc.a(vsnprintf.os)
                                                  /cygdrive/c/ArmToolchain/arm-linux-uclibc/bin/../../lib/libc.a(sprintf.os)
                                                  /cygdrive/c/ArmToolchain/arm-linux-uclibc/bin/../../lib/libc.a(snprintf.os)
                                                  /cygdrive/c/ArmToolchain/arm-linux-uclibc/bin/../../lib/libc.a(vsprintf.os)
__GI_vswprintf                                    /cygdrive/c/ArmToolchain/arm-linux-uclibc/bin/../../lib/libc.a(vswprintf.os)
__GI_wcrtomb                                      /cygdrive/c/ArmToolchain/arm-linux-uclibc/bin/../../lib/libc.a(wcrtomb.os)
                                                  /cygdrive/c/ArmToolchain/arm-linux-uclibc/bin/../../lib/libc.a(vfprintf.os)
__GI_wcslen                                       /cygdrive/c/ArmToolchain/arm-linux-uclibc/bin/../../lib/libc.a(wcslen.os)
                                                  /cygdrive/c/ArmToolchain/arm-linux-uclibc/bin/../../lib/libc.a(fputws_unlocked.os)
                                                  /cygdrive/c/ArmToolchain/arm-linux-uclibc/bin/../../lib/libc.a(vfwprintf.os)
__GI_wcsnlen                                      /cygdrive/c/ArmToolchain/arm-linux-uclibc/bin/../../lib/libc.a(wcsnlen.os)
                                                  /cygdrive/c/ArmToolchain/arm-linux-uclibc/bin/../../lib/libc.a(vfwprintf.os)
__GI_wcsnrtombs                                   /cygdrive/c/ArmToolchain/arm-linux-uclibc/bin/../../lib/libc.a(wcsnrtombs.os)
                                                  /cygdrive/c/ArmToolchain/arm-linux-uclibc/bin/../../lib/libc.a(_wfwrite.os)
                                                  /cygdrive/c/ArmToolchain/arm-linux-uclibc/bin/../../lib/libc.a(wcsrtombs.os)
                                                  /cygdrive/c/ArmToolchain/arm-linux-uclibc/bin/../../lib/libc.a(wcrtomb.os)
__GI_wcsrtombs                                    /cygdrive/c/ArmToolchain/arm-linux-uclibc/bin/../../lib/libc.a(wcsrtombs.os)
                                                  /cygdrive/c/ArmToolchain/arm-linux-uclibc/bin/../../lib/libc.a(vfwprintf.os)
                                                  /cygdrive/c/ArmToolchain/arm-linux-uclibc/bin/../../lib/libc.a(vfprintf.os)
__GI_wmemcpy                                      /cygdrive/c/ArmToolchain/arm-linux-uclibc/bin/../../lib/libc.a(wmemcpy.os)
                                                  /cygdrive/c/ArmToolchain/arm-linux-uclibc/bin/../../lib/libc.a(_wfwrite.os)
__GI_write                                        /cygdrive/c/ArmToolchain/arm-linux-uclibc/bin/../../lib/libc.a(write.os)
                                                  /cygdrive/c/ArmToolchain/arm-linux-uclibc/bin/../../lib/libc.a(_cs_funcs.os)
__GetOpenErr                                      ../SDK/lib/libcrypto.a(fopen.o)
__GetOpenFD                                       ../SDK/lib/libcrypto.a(fopen.o)
                                                  ../SDK/lib/libcrypto.a(fprintf.o)
__GetOpenName                                     ../SDK/lib/libcrypto.a(fopen.o)
__GetOpenRefCnt                                   ../SDK/lib/libcrypto.a(fopen.o)
                                                  ../SDK/lib/libcrypto.a(fprintf.o)
__ICCARD_EXCHANGE_APDU                            ../SDK/lib/libemv.a(emvicc.o)
                                                  ../obj/Src/qpbocProc.o
                                                  ../obj/Src/otherfunc.o
                                                  ../obj/Src/main.o
__PutOpenFD                                       ../SDK/lib/libcrypto.a(fopen.o)
__SetOpenErr                                      ../SDK/lib/libcrypto.a(fopen.o)
                                                  ../SDK/lib/libcrypto.a(write.o)
__adddf3                                          /cygdrive/c/ArmToolchain/bin/../lib/gcc/arm-linux-uclibc/4.1.2/libgcc.a(_addsubdf3.o)
                                                  /cygdrive/c/ArmToolchain/arm-linux-uclibc/bin/../../lib/libc.a(_fpmaxtostr.os)
__aeabi_cdcmpeq                                   /cygdrive/c/ArmToolchain/bin/../lib/gcc/arm-linux-uclibc/4.1.2/libgcc.a(_cmpdf2.o)
__aeabi_cdcmple                                   /cygdrive/c/ArmToolchain/bin/../lib/gcc/arm-linux-uclibc/4.1.2/libgcc.a(_cmpdf2.o)
__aeabi_cdrcmple                                  /cygdrive/c/ArmToolchain/bin/../lib/gcc/arm-linux-uclibc/4.1.2/libgcc.a(_cmpdf2.o)
__aeabi_d2uiz                                     /cygdrive/c/ArmToolchain/bin/../lib/gcc/arm-linux-uclibc/4.1.2/libgcc.a(_fixunsdfsi.o)
__aeabi_dadd                                      /cygdrive/c/ArmToolchain/bin/../lib/gcc/arm-linux-uclibc/4.1.2/libgcc.a(_addsubdf3.o)
__aeabi_dcmpeq                                    /cygdrive/c/ArmToolchain/bin/../lib/gcc/arm-linux-uclibc/4.1.2/libgcc.a(_cmpdf2.o)
__aeabi_dcmpge                                    /cygdrive/c/ArmToolchain/bin/../lib/gcc/arm-linux-uclibc/4.1.2/libgcc.a(_cmpdf2.o)
__aeabi_dcmpgt                                    /cygdrive/c/ArmToolchain/bin/../lib/gcc/arm-linux-uclibc/4.1.2/libgcc.a(_cmpdf2.o)
__aeabi_dcmple                                    /cygdrive/c/ArmToolchain/bin/../lib/gcc/arm-linux-uclibc/4.1.2/libgcc.a(_cmpdf2.o)
__aeabi_dcmplt                                    /cygdrive/c/ArmToolchain/bin/../lib/gcc/arm-linux-uclibc/4.1.2/libgcc.a(_cmpdf2.o)
__aeabi_ddiv                                      /cygdrive/c/ArmToolchain/bin/../lib/gcc/arm-linux-uclibc/4.1.2/libgcc.a(_muldivdf3.o)
__aeabi_dmul                                      /cygdrive/c/ArmToolchain/bin/../lib/gcc/arm-linux-uclibc/4.1.2/libgcc.a(_muldivdf3.o)
__aeabi_drsub                                     /cygdrive/c/ArmToolchain/bin/../lib/gcc/arm-linux-uclibc/4.1.2/libgcc.a(_addsubdf3.o)
__aeabi_dsub                                      /cygdrive/c/ArmToolchain/bin/../lib/gcc/arm-linux-uclibc/4.1.2/libgcc.a(_addsubdf3.o)
__aeabi_f2d                                       /cygdrive/c/ArmToolchain/bin/../lib/gcc/arm-linux-uclibc/4.1.2/libgcc.a(_addsubdf3.o)
__aeabi_i2d                                       /cygdrive/c/ArmToolchain/bin/../lib/gcc/arm-linux-uclibc/4.1.2/libgcc.a(_addsubdf3.o)
__aeabi_idiv                                      /cygdrive/c/ArmToolchain/bin/../lib/gcc/arm-linux-uclibc/4.1.2/libgcc.a(_divsi3.o)
__aeabi_idivmod                                   /cygdrive/c/ArmToolchain/bin/../lib/gcc/arm-linux-uclibc/4.1.2/libgcc.a(_divsi3.o)
__aeabi_l2d                                       /cygdrive/c/ArmToolchain/bin/../lib/gcc/arm-linux-uclibc/4.1.2/libgcc.a(_addsubdf3.o)
__aeabi_ui2d                                      /cygdrive/c/ArmToolchain/bin/../lib/gcc/arm-linux-uclibc/4.1.2/libgcc.a(_addsubdf3.o)
__aeabi_uidiv                                     /cygdrive/c/ArmToolchain/bin/../lib/gcc/arm-linux-uclibc/4.1.2/libgcc.a(_udivsi3.o)
__aeabi_uidivmod                                  /cygdrive/c/ArmToolchain/bin/../lib/gcc/arm-linux-uclibc/4.1.2/libgcc.a(_udivsi3.o)
__aeabi_ul2d                                      /cygdrive/c/ArmToolchain/bin/../lib/gcc/arm-linux-uclibc/4.1.2/libgcc.a(_addsubdf3.o)
__clz_tab                                         /cygdrive/c/ArmToolchain/bin/../lib/gcc/arm-linux-uclibc/4.1.2/libgcc.a(_clz.o)
                                                  /cygdrive/c/ArmToolchain/bin/../lib/gcc/arm-linux-uclibc/4.1.2/libgcc.a(_divdi3.o)
__cmpdf2                                          /cygdrive/c/ArmToolchain/bin/../lib/gcc/arm-linux-uclibc/4.1.2/libgcc.a(_cmpdf2.o)
__ctype_b                                         /cygdrive/c/ArmToolchain/arm-linux-uclibc/bin/../../lib/libc.a(__C_ctype_b.os)
                                                  ../SDK/lib/libftp.a(ftp.o)
                                                  ../SDK/lib/libemv.a(emvicc.o)
                                                  ../obj/Src/NewPosApi.o
__ctype_tolower                                   /cygdrive/c/ArmToolchain/arm-linux-uclibc/bin/../../lib/libc.a(__C_ctype_tolower.os)
__ctype_toupper                                   /cygdrive/c/ArmToolchain/arm-linux-uclibc/bin/../../lib/libc.a(__C_ctype_toupper.os)
                                                  ../obj/Src/pack8583.o
                                                  ../obj/Src/PosLib.o
                                                  ../obj/Src/otherfunc.o
                                                  ../obj/Src/MathLib.o
__div0                                            /cygdrive/c/ArmToolchain/bin/../lib/gcc/arm-linux-uclibc/4.1.2/libgcc.a(_dvmd_lnx.o)
                                                  /cygdrive/c/ArmToolchain/bin/../lib/gcc/arm-linux-uclibc/4.1.2/libgcc.a(_modsi3.o)
                                                  /cygdrive/c/ArmToolchain/bin/../lib/gcc/arm-linux-uclibc/4.1.2/libgcc.a(_umodsi3.o)
                                                  /cygdrive/c/ArmToolchain/bin/../lib/gcc/arm-linux-uclibc/4.1.2/libgcc.a(_divsi3.o)
                                                  /cygdrive/c/ArmToolchain/bin/../lib/gcc/arm-linux-uclibc/4.1.2/libgcc.a(_udivsi3.o)
__divdf3                                          /cygdrive/c/ArmToolchain/bin/../lib/gcc/arm-linux-uclibc/4.1.2/libgcc.a(_muldivdf3.o)
                                                  /cygdrive/c/ArmToolchain/arm-linux-uclibc/bin/../../lib/libc.a(_fpmaxtostr.os)
__divdi3                                          /cygdrive/c/ArmToolchain/bin/../lib/gcc/arm-linux-uclibc/4.1.2/libgcc.a(_divdi3.o)
                                                  ../obj/Src/tranproc.o
__divsi3                                          /cygdrive/c/ArmToolchain/bin/../lib/gcc/arm-linux-uclibc/4.1.2/libgcc.a(_divsi3.o)
                                                  /cygdrive/c/ArmToolchain/arm-linux-uclibc/bin/../../lib/libc.a(_fpmaxtostr.os)
                                                  ../obj/Src/LocalFtp.o
                                                  ../obj/Src/PosLib.o
                                                  ../obj/Src/otherfunc.o
__eqdf2                                           /cygdrive/c/ArmToolchain/bin/../lib/gcc/arm-linux-uclibc/4.1.2/libgcc.a(_cmpdf2.o)
                                                  /cygdrive/c/ArmToolchain/arm-linux-uclibc/bin/../../lib/libc.a(_fpmaxtostr.os)
__errno_location                                  ../SDK/lib/libcrypto.a(perror.o)
                                                  /cygdrive/c/ArmToolchain/arm-linux-uclibc/bin/../../lib/libc.a(_adjust_pos.os)
                                                  /cygdrive/c/ArmToolchain/arm-linux-uclibc/bin/../../lib/libc.a(fseeko64.os)
                                                  /cygdrive/c/ArmToolchain/arm-linux-uclibc/bin/../../lib/libc.a(_trans2w.os)
                                                  /cygdrive/c/ArmToolchain/arm-linux-uclibc/bin/../../lib/libc.a(wcsnrtombs.os)
                                                  /cygdrive/c/ArmToolchain/arm-linux-uclibc/bin/../../lib/libc.a(mbsnrtowcs.os)
                                                  /cygdrive/c/ArmToolchain/arm-linux-uclibc/bin/../../lib/libc.a(write.os)
                                                  /cygdrive/c/ArmToolchain/arm-linux-uclibc/bin/../../lib/libc.a(read.os)
                                                  /cygdrive/c/ArmToolchain/arm-linux-uclibc/bin/../../lib/libc.a(llseek.os)
                                                  /cygdrive/c/ArmToolchain/arm-linux-uclibc/bin/../../lib/libc.a(kill.os)
                                                  /cygdrive/c/ArmToolchain/arm-linux-uclibc/bin/../../lib/libc.a(ioctl.os)
                                                  /cygdrive/c/ArmToolchain/arm-linux-uclibc/bin/../../lib/libc.a(getpid.os)
                                                  /cygdrive/c/ArmToolchain/arm-linux-uclibc/bin/../../lib/libc.a(close.os)
                                                  /cygdrive/c/ArmToolchain/arm-linux-uclibc/bin/../../lib/libc.a(_stdlib_strto_l.os)
                                                  /cygdrive/c/ArmToolchain/arm-linux-uclibc/bin/../../lib/libc.a(ntop.os)
                                                  /cygdrive/c/ArmToolchain/arm-linux-uclibc/bin/../../lib/libc.a(__xpg_strerror_r.os)
                                                  /cygdrive/c/ArmToolchain/arm-linux-uclibc/bin/../../lib/libc.a(fwrite_unlocked.os)
                                                  /cygdrive/c/ArmToolchain/arm-linux-uclibc/bin/../../lib/libc.a(vfwprintf.os)
                                                  /cygdrive/c/ArmToolchain/arm-linux-uclibc/bin/../../lib/libc.a(vfprintf.os)
                                                  /cygdrive/c/ArmToolchain/arm-linux-uclibc/bin/../../lib/libc.a(_stdio.os)
                                                  ../SDK/lib/libcrypto.a(open.o)
                                                  ../SDK/lib/libcrypto.a(fopen.o)
                                                  ../SDK/lib/libemv.a(qpboc_funcs.o)
                                                  ../SDK/lib/libemv.a(emvtlv.o)
                                                  ../SDK/lib/libemv.a(emvtac.o)
                                                  ../SDK/lib/libemv.a(emvreadappdata.o)
                                                  ../SDK/lib/libemv.a(emvpubfunc.o)
                                                  ../SDK/lib/libemv.a(emvpinverify.o)
                                                  ../SDK/lib/libemv.a(emvodalist.o)
                                                  ../SDK/lib/libemv.a(emvoda.o)
                                                  ../SDK/lib/libemv.a(emvicc.o)
                                                  ../SDK/lib/libemv.a(emvdte.o)
                                                  ../SDK/lib/libemv.a(emvdol.o)
                                                  ../SDK/lib/libemv.a(emvddflist.o)
                                                  ../SDK/lib/libemv.a(emvcvm.o)
                                                  ../SDK/lib/libemv.a(emvconfigure.o)
                                                  ../SDK/lib/libemv.a(emvcomplete.o)
                                                  ../SDK/lib/libemv.a(emvcapk.o)
                                                  ../SDK/lib/libemv.a(emvcandapp.o)
                                                  ../SDK/lib/libemv.a(emvappselect.o)
                                                  ../SDK/lib/libemv.a(emvaidlist.o)
                                                  ../SDK/lib/libemv.a(emv_core_func.o)
                                                  ../SDK/lib/libseos.a(dll.o)
                                                  ../obj/Src/qpbocProc.o
                                                  ../obj/Src/emvtranproc.o
                                                  ../obj/Src/tranproc.o
                                                  ../obj/Src/posfiles.o
                                                  ../obj/Src/otherfunc.o
                                                  ../obj/Src/Commlib.o
__extendsfdf2                                     /cygdrive/c/ArmToolchain/bin/../lib/gcc/arm-linux-uclibc/4.1.2/libgcc.a(_addsubdf3.o)
__fixunsdfsi                                      /cygdrive/c/ArmToolchain/bin/../lib/gcc/arm-linux-uclibc/4.1.2/libgcc.a(_fixunsdfsi.o)
                                                  /cygdrive/c/ArmToolchain/arm-linux-uclibc/bin/../../lib/libc.a(_fpmaxtostr.os)
__floatdidf                                       /cygdrive/c/ArmToolchain/bin/../lib/gcc/arm-linux-uclibc/4.1.2/libgcc.a(_addsubdf3.o)
__floatsidf                                       /cygdrive/c/ArmToolchain/bin/../lib/gcc/arm-linux-uclibc/4.1.2/libgcc.a(_addsubdf3.o)
                                                  /cygdrive/c/ArmToolchain/arm-linux-uclibc/bin/../../lib/libc.a(_fpmaxtostr.os)
__floatundidf                                     /cygdrive/c/ArmToolchain/bin/../lib/gcc/arm-linux-uclibc/4.1.2/libgcc.a(_addsubdf3.o)
__floatunsidf                                     /cygdrive/c/ArmToolchain/bin/../lib/gcc/arm-linux-uclibc/4.1.2/libgcc.a(_addsubdf3.o)
__gedf2                                           /cygdrive/c/ArmToolchain/bin/../lib/gcc/arm-linux-uclibc/4.1.2/libgcc.a(_cmpdf2.o)
                                                  /cygdrive/c/ArmToolchain/arm-linux-uclibc/bin/../../lib/libc.a(_fpmaxtostr.os)
__glibc_strerror_r                                /cygdrive/c/ArmToolchain/arm-linux-uclibc/bin/../../lib/libc.a(__glibc_strerror_r.os)
__gtdf2                                           /cygdrive/c/ArmToolchain/bin/../lib/gcc/arm-linux-uclibc/4.1.2/libgcc.a(_cmpdf2.o)
__ledf2                                           /cygdrive/c/ArmToolchain/bin/../lib/gcc/arm-linux-uclibc/4.1.2/libgcc.a(_cmpdf2.o)
__libc_close                                      /cygdrive/c/ArmToolchain/arm-linux-uclibc/bin/../../lib/libc.a(close.os)
__libc_getpid                                     /cygdrive/c/ArmToolchain/arm-linux-uclibc/bin/../../lib/libc.a(getpid.os)
__libc_lseek64                                    /cygdrive/c/ArmToolchain/arm-linux-uclibc/bin/../../lib/libc.a(llseek.os)
__libc_read                                       /cygdrive/c/ArmToolchain/arm-linux-uclibc/bin/../../lib/libc.a(read.os)
__libc_write                                      /cygdrive/c/ArmToolchain/arm-linux-uclibc/bin/../../lib/libc.a(write.os)
__ltdf2                                           /cygdrive/c/ArmToolchain/bin/../lib/gcc/arm-linux-uclibc/4.1.2/libgcc.a(_cmpdf2.o)
                                                  /cygdrive/c/ArmToolchain/arm-linux-uclibc/bin/../../lib/libc.a(_fpmaxtostr.os)
__modsi3                                          /cygdrive/c/ArmToolchain/bin/../lib/gcc/arm-linux-uclibc/4.1.2/libgcc.a(_modsi3.o)
                                                  /cygdrive/c/ArmToolchain/arm-linux-uclibc/bin/../../lib/libc.a(_fpmaxtostr.os)
                                                  ../obj/Src/pack8583.o
__muldf3                                          /cygdrive/c/ArmToolchain/bin/../lib/gcc/arm-linux-uclibc/4.1.2/libgcc.a(_muldivdf3.o)
                                                  /cygdrive/c/ArmToolchain/arm-linux-uclibc/bin/../../lib/libc.a(_fpmaxtostr.os)
__nedf2                                           /cygdrive/c/ArmToolchain/bin/../lib/gcc/arm-linux-uclibc/4.1.2/libgcc.a(_cmpdf2.o)
                                                  /cygdrive/c/ArmToolchain/arm-linux-uclibc/bin/../../lib/libc.a(_fpmaxtostr.os)
__pthread_mutex_lock                              /cygdrive/c/ArmToolchain/arm-linux-uclibc/bin/../../lib/libc.a(fseeko64.os)
                                                  /cygdrive/c/ArmToolchain/arm-linux-uclibc/bin/../../lib/libc.a(fputws.os)
                                                  /cygdrive/c/ArmToolchain/arm-linux-uclibc/bin/../../lib/libc.a(vfwprintf.os)
                                                  /cygdrive/c/ArmToolchain/arm-linux-uclibc/bin/../../lib/libc.a(vfprintf.os)
__pthread_mutex_trylock                           /cygdrive/c/ArmToolchain/arm-linux-uclibc/bin/../../lib/libc.a(_stdio.os)
__pthread_mutex_unlock                            /cygdrive/c/ArmToolchain/arm-linux-uclibc/bin/../../lib/libc.a(fseeko64.os)
                                                  /cygdrive/c/ArmToolchain/arm-linux-uclibc/bin/../../lib/libc.a(fputws.os)
                                                  /cygdrive/c/ArmToolchain/arm-linux-uclibc/bin/../../lib/libc.a(vfwprintf.os)
                                                  /cygdrive/c/ArmToolchain/arm-linux-uclibc/bin/../../lib/libc.a(vfprintf.os)
__raise                                           /cygdrive/c/ArmToolchain/arm-linux-uclibc/bin/../../lib/libc.a(raise.os)
__stdin                                           /cygdrive/c/ArmToolchain/arm-linux-uclibc/bin/../../lib/libc.a(_stdio.os)
__stdio_WRITE                                     /cygdrive/c/ArmToolchain/arm-linux-uclibc/bin/../../lib/libc.a(_WRITE.os)
                                                  /cygdrive/c/ArmToolchain/arm-linux-uclibc/bin/../../lib/libc.a(_fwrite.os)
                                                  /cygdrive/c/ArmToolchain/arm-linux-uclibc/bin/../../lib/libc.a(_wcommit.os)
__stdio_adjust_position                           /cygdrive/c/ArmToolchain/arm-linux-uclibc/bin/../../lib/libc.a(_adjust_pos.os)
                                                  /cygdrive/c/ArmToolchain/arm-linux-uclibc/bin/../../lib/libc.a(fseeko64.os)
__stdio_fwrite                                    /cygdrive/c/ArmToolchain/arm-linux-uclibc/bin/../../lib/libc.a(_fwrite.os)
                                                  /cygdrive/c/ArmToolchain/arm-linux-uclibc/bin/../../lib/libc.a(_wfwrite.os)
                                                  /cygdrive/c/ArmToolchain/arm-linux-uclibc/bin/../../lib/libc.a(fwrite_unlocked.os)
                                                  /cygdrive/c/ArmToolchain/arm-linux-uclibc/bin/../../lib/libc.a(vfprintf.os)
__stdio_init_mutex                                /cygdrive/c/ArmToolchain/arm-linux-uclibc/bin/../../lib/libc.a(_stdio.os)
                                                  /cygdrive/c/ArmToolchain/arm-linux-uclibc/bin/../../lib/libc.a(vswprintf.os)
                                                  /cygdrive/c/ArmToolchain/arm-linux-uclibc/bin/../../lib/libc.a(vsnprintf.os)
__stdio_trans2w_o                                 /cygdrive/c/ArmToolchain/arm-linux-uclibc/bin/../../lib/libc.a(_trans2w.os)
                                                  /cygdrive/c/ArmToolchain/arm-linux-uclibc/bin/../../lib/libc.a(_wfwrite.os)
                                                  /cygdrive/c/ArmToolchain/arm-linux-uclibc/bin/../../lib/libc.a(fwrite_unlocked.os)
                                                  /cygdrive/c/ArmToolchain/arm-linux-uclibc/bin/../../lib/libc.a(vfwprintf.os)
                                                  /cygdrive/c/ArmToolchain/arm-linux-uclibc/bin/../../lib/libc.a(vfprintf.os)
__stdio_wcommit                                   /cygdrive/c/ArmToolchain/arm-linux-uclibc/bin/../../lib/libc.a(_wcommit.os)
                                                  /cygdrive/c/ArmToolchain/arm-linux-uclibc/bin/../../lib/libc.a(fseeko64.os)
                                                  /cygdrive/c/ArmToolchain/arm-linux-uclibc/bin/../../lib/libc.a(_fwrite.os)
                                                  /cygdrive/c/ArmToolchain/arm-linux-uclibc/bin/../../lib/libc.a(_stdio.os)
__stdout                                          /cygdrive/c/ArmToolchain/arm-linux-uclibc/bin/../../lib/libc.a(_stdio.os)
__subdf3                                          /cygdrive/c/ArmToolchain/bin/../lib/gcc/arm-linux-uclibc/4.1.2/libgcc.a(_addsubdf3.o)
                                                  /cygdrive/c/ArmToolchain/arm-linux-uclibc/bin/../../lib/libc.a(_fpmaxtostr.os)
__udivsi3                                         /cygdrive/c/ArmToolchain/bin/../lib/gcc/arm-linux-uclibc/4.1.2/libgcc.a(_udivsi3.o)
                                                  /cygdrive/c/ArmToolchain/arm-linux-uclibc/bin/../../lib/libc.a(_fpmaxtostr.os)
                                                  /cygdrive/c/ArmToolchain/arm-linux-uclibc/bin/../../lib/libc.a(_uintmaxtostr.os)
                                                  /cygdrive/c/ArmToolchain/arm-linux-uclibc/bin/../../lib/libc.a(_stdlib_strto_l.os)
                                                  /cygdrive/c/ArmToolchain/arm-linux-uclibc/bin/../../lib/libc.a(ntop.os)
                                                  /cygdrive/c/ArmToolchain/arm-linux-uclibc/bin/../../lib/libc.a(fwrite_unlocked.os)
                                                  /cygdrive/c/ArmToolchain/bin/../lib/gcc/arm-linux-uclibc/4.1.2/libgcc.a(_divdi3.o)
                                                  ../SDK/lib/libemv.a(emvtermrisk.o)
                                                  ../SDK/lib/libemv.a(emvpubfunc.o)
                                                  ../SDK/lib/libemv.a(emvappselect.o)
                                                  ../obj/Src/PosLib.o
__umodsi3                                         /cygdrive/c/ArmToolchain/bin/../lib/gcc/arm-linux-uclibc/4.1.2/libgcc.a(_umodsi3.o)
                                                  /cygdrive/c/ArmToolchain/arm-linux-uclibc/bin/../../lib/libc.a(_fpmaxtostr.os)
                                                  /cygdrive/c/ArmToolchain/arm-linux-uclibc/bin/../../lib/libc.a(_uintmaxtostr.os)
                                                  /cygdrive/c/ArmToolchain/arm-linux-uclibc/bin/../../lib/libc.a(_stdlib_strto_l.os)
                                                  /cygdrive/c/ArmToolchain/arm-linux-uclibc/bin/../../lib/libc.a(ntop.os)
                                                  /cygdrive/c/ArmToolchain/bin/../lib/gcc/arm-linux-uclibc/4.1.2/libgcc.a(_divdi3.o)
                                                  ../SDK/lib/libemv.a(emvtermrisk.o)
                                                  ../SDK/lib/libemv.a(emvpubfunc.o)
                                                  ../obj/Src/PosLib.o
__xpg_strerror_r                                  /cygdrive/c/ArmToolchain/arm-linux-uclibc/bin/../../lib/libc.a(__xpg_strerror_r.os)
_calloc                                           ../SDK/lib/liballoc.a(memmgr.o)
_cs_close                                         /cygdrive/c/ArmToolchain/arm-linux-uclibc/bin/../../lib/libc.a(_cs_funcs.os)
                                                  /cygdrive/c/ArmToolchain/arm-linux-uclibc/bin/../../lib/libc.a(_stdio.os)
_cs_read                                          /cygdrive/c/ArmToolchain/arm-linux-uclibc/bin/../../lib/libc.a(_cs_funcs.os)
                                                  /cygdrive/c/ArmToolchain/arm-linux-uclibc/bin/../../lib/libc.a(_stdio.os)
_cs_seek                                          /cygdrive/c/ArmToolchain/arm-linux-uclibc/bin/../../lib/libc.a(_cs_funcs.os)
                                                  /cygdrive/c/ArmToolchain/arm-linux-uclibc/bin/../../lib/libc.a(_stdio.os)
_cs_write                                         /cygdrive/c/ArmToolchain/arm-linux-uclibc/bin/../../lib/libc.a(_cs_funcs.os)
                                                  /cygdrive/c/ArmToolchain/arm-linux-uclibc/bin/../../lib/libc.a(_stdio.os)
_custom_printf_arginfo                            /cygdrive/c/ArmToolchain/arm-linux-uclibc/bin/../../lib/libc.a(_ppfs_parsespec.os)
_custom_printf_handler                            /cygdrive/c/ArmToolchain/arm-linux-uclibc/bin/../../lib/libc.a(vfwprintf.os)
                                                  /cygdrive/c/ArmToolchain/arm-linux-uclibc/bin/../../lib/libc.a(_ppfs_parsespec.os)
                                                  /cygdrive/c/ArmToolchain/arm-linux-uclibc/bin/../../lib/libc.a(vfprintf.os)
_custom_printf_spec                               /cygdrive/c/ArmToolchain/arm-linux-uclibc/bin/../../lib/libc.a(_ppfs_parsespec.os)
                                                  /cygdrive/c/ArmToolchain/arm-linux-uclibc/bin/../../lib/libc.a(vfwprintf.os)
                                                  /cygdrive/c/ArmToolchain/arm-linux-uclibc/bin/../../lib/libc.a(vfprintf.os)
_fpmaxtostr                                       /cygdrive/c/ArmToolchain/arm-linux-uclibc/bin/../../lib/libc.a(_fpmaxtostr.os)
                                                  /cygdrive/c/ArmToolchain/arm-linux-uclibc/bin/../../lib/libc.a(vfwprintf.os)
                                                  /cygdrive/c/ArmToolchain/arm-linux-uclibc/bin/../../lib/libc.a(vfprintf.os)
_free                                             ../SDK/lib/liballoc.a(memmgr.o)
_load_inttype                                     /cygdrive/c/ArmToolchain/arm-linux-uclibc/bin/../../lib/libc.a(_load_inttype.os)
                                                  /cygdrive/c/ArmToolchain/arm-linux-uclibc/bin/../../lib/libc.a(vfwprintf.os)
                                                  /cygdrive/c/ArmToolchain/arm-linux-uclibc/bin/../../lib/libc.a(vfprintf.os)
_malloc                                           ../SDK/lib/liballoc.a(memmgr.o)
_mallocalign                                      ../SDK/lib/liballoc.a(memmgr.o)
_memcpy                                           /cygdrive/c/ArmToolchain/arm-linux-uclibc/bin/../../lib/libc.a(_memcpy.os)
                                                  /cygdrive/c/ArmToolchain/arm-linux-uclibc/bin/../../lib/libc.a(memmove.os)
                                                  /cygdrive/c/ArmToolchain/arm-linux-uclibc/bin/../../lib/libc.a(memcpy.os)
_ppfs_init                                        /cygdrive/c/ArmToolchain/arm-linux-uclibc/bin/../../lib/libc.a(_ppfs_init.os)
                                                  /cygdrive/c/ArmToolchain/arm-linux-uclibc/bin/../../lib/libc.a(vfprintf.os)
_ppfs_parsespec                                   /cygdrive/c/ArmToolchain/arm-linux-uclibc/bin/../../lib/libc.a(_ppfs_parsespec.os)
                                                  /cygdrive/c/ArmToolchain/arm-linux-uclibc/bin/../../lib/libc.a(vfwprintf.os)
                                                  /cygdrive/c/ArmToolchain/arm-linux-uclibc/bin/../../lib/libc.a(_ppfs_init.os)
                                                  /cygdrive/c/ArmToolchain/arm-linux-uclibc/bin/../../lib/libc.a(vfprintf.os)
_ppfs_prepargs                                    /cygdrive/c/ArmToolchain/arm-linux-uclibc/bin/../../lib/libc.a(_ppfs_prepargs.os)
                                                  /cygdrive/c/ArmToolchain/arm-linux-uclibc/bin/../../lib/libc.a(vfwprintf.os)
                                                  /cygdrive/c/ArmToolchain/arm-linux-uclibc/bin/../../lib/libc.a(vfprintf.os)
_ppfs_setargs                                     /cygdrive/c/ArmToolchain/arm-linux-uclibc/bin/../../lib/libc.a(_ppfs_setargs.os)
                                                  /cygdrive/c/ArmToolchain/arm-linux-uclibc/bin/../../lib/libc.a(vfwprintf.os)
                                                  /cygdrive/c/ArmToolchain/arm-linux-uclibc/bin/../../lib/libc.a(_ppfs_prepargs.os)
                                                  /cygdrive/c/ArmToolchain/arm-linux-uclibc/bin/../../lib/libc.a(vfprintf.os)
_pthread_cleanup_pop_restore                      /cygdrive/c/ArmToolchain/arm-linux-uclibc/bin/../../lib/libc.a(fseeko64.os)
                                                  /cygdrive/c/ArmToolchain/arm-linux-uclibc/bin/../../lib/libc.a(fputws.os)
                                                  /cygdrive/c/ArmToolchain/arm-linux-uclibc/bin/../../lib/libc.a(vfwprintf.os)
                                                  /cygdrive/c/ArmToolchain/arm-linux-uclibc/bin/../../lib/libc.a(vfprintf.os)
_pthread_cleanup_push_defer                       /cygdrive/c/ArmToolchain/arm-linux-uclibc/bin/../../lib/libc.a(fseeko64.os)
                                                  /cygdrive/c/ArmToolchain/arm-linux-uclibc/bin/../../lib/libc.a(fputws.os)
                                                  /cygdrive/c/ArmToolchain/arm-linux-uclibc/bin/../../lib/libc.a(vfwprintf.os)
                                                  /cygdrive/c/ArmToolchain/arm-linux-uclibc/bin/../../lib/libc.a(vfprintf.os)
_realloc                                          ../SDK/lib/liballoc.a(memmgr.o)
_stdio_init                                       /cygdrive/c/ArmToolchain/arm-linux-uclibc/bin/../../lib/libc.a(_stdio.os)
_stdio_openlist                                   /cygdrive/c/ArmToolchain/arm-linux-uclibc/bin/../../lib/libc.a(_stdio.os)
_stdio_openlist_add_lock                          /cygdrive/c/ArmToolchain/arm-linux-uclibc/bin/../../lib/libc.a(_stdio.os)
_stdio_openlist_del_count                         /cygdrive/c/ArmToolchain/arm-linux-uclibc/bin/../../lib/libc.a(_stdio.os)
_stdio_openlist_del_lock                          /cygdrive/c/ArmToolchain/arm-linux-uclibc/bin/../../lib/libc.a(_stdio.os)
_stdio_openlist_use_count                         /cygdrive/c/ArmToolchain/arm-linux-uclibc/bin/../../lib/libc.a(_stdio.os)
_stdio_term                                       /cygdrive/c/ArmToolchain/arm-linux-uclibc/bin/../../lib/libc.a(_stdio.os)
_stdio_user_locking                               /cygdrive/c/ArmToolchain/arm-linux-uclibc/bin/../../lib/libc.a(_stdio.os)
_stdlib_strto_l                                   /cygdrive/c/ArmToolchain/arm-linux-uclibc/bin/../../lib/libc.a(_stdlib_strto_l.os)
                                                  /cygdrive/c/ArmToolchain/arm-linux-uclibc/bin/../../lib/libc.a(strtol.os)
_store_inttype                                    /cygdrive/c/ArmToolchain/arm-linux-uclibc/bin/../../lib/libc.a(_store_inttype.os)
                                                  /cygdrive/c/ArmToolchain/arm-linux-uclibc/bin/../../lib/libc.a(vfwprintf.os)
                                                  /cygdrive/c/ArmToolchain/arm-linux-uclibc/bin/../../lib/libc.a(vfprintf.os)
_string_syserrmsgs                                /cygdrive/c/ArmToolchain/arm-linux-uclibc/bin/../../lib/libc.a(_string_syserrmsgs.os)
                                                  /cygdrive/c/ArmToolchain/arm-linux-uclibc/bin/../../lib/libc.a(__xpg_strerror_r.os)
_uintmaxtostr                                     /cygdrive/c/ArmToolchain/arm-linux-uclibc/bin/../../lib/libc.a(_uintmaxtostr.os)
                                                  /cygdrive/c/ArmToolchain/arm-linux-uclibc/bin/../../lib/libc.a(__xpg_strerror_r.os)
                                                  /cygdrive/c/ArmToolchain/arm-linux-uclibc/bin/../../lib/libc.a(vfwprintf.os)
                                                  /cygdrive/c/ArmToolchain/arm-linux-uclibc/bin/../../lib/libc.a(vfprintf.os)
_wstdio_fwrite                                    /cygdrive/c/ArmToolchain/arm-linux-uclibc/bin/../../lib/libc.a(_wfwrite.os)
                                                  /cygdrive/c/ArmToolchain/arm-linux-uclibc/bin/../../lib/libc.a(fputws_unlocked.os)
                                                  /cygdrive/c/ArmToolchain/arm-linux-uclibc/bin/../../lib/libc.a(vfwprintf.os)
accGetMotion                                      ../SDK/lib/libseos.a(dll.o)
aes_bi_ige_encrypt                                ../SDK/lib/libseos.a(dll.o)
aes_cbc_encrypt                                   ../SDK/lib/libseos.a(dll.o)
aes_cfb128_encrypt                                ../SDK/lib/libseos.a(dll.o)
aes_cfb1_encrypt                                  ../SDK/lib/libseos.a(dll.o)
aes_cfb8_encrypt                                  ../SDK/lib/libseos.a(dll.o)
aes_cfbr_encrypt_block                            ../SDK/lib/libseos.a(dll.o)
aes_ctr128_encrypt                                ../SDK/lib/libseos.a(dll.o)
aes_decrypt                                       ../SDK/lib/libseos.a(dll.o)
aes_ecb_encrypt                                   ../SDK/lib/libseos.a(dll.o)
aes_encrypt                                       ../SDK/lib/libseos.a(dll.o)
aes_ige_encrypt                                   ../SDK/lib/libseos.a(dll.o)
aes_ofb128_encrypt                                ../SDK/lib/libseos.a(dll.o)
aes_set_decrypt_key                               ../SDK/lib/libseos.a(dll.o)
aes_set_encrypt_key                               ../SDK/lib/libseos.a(dll.o)
apiConvAmount                                     ../obj/Src/NewPosApi.o
appDelete                                         ../SDK/lib/libseos.a(dll.o)
appReadInfo                                       ../SDK/lib/libseos.a(dll.o)
appReadState                                      ../SDK/lib/libseos.a(dll.o)
appRun                                            ../SDK/lib/libseos.a(dll.o)
asc2ulong                                         ../obj/Src/emvtranproc.o
at24cxxClose                                      ../SDK/lib/libseos.a(dll.o)
at24cxxOpen                                       ../SDK/lib/libseos.a(dll.o)
at24cxxRead                                       ../SDK/lib/libseos.a(dll.o)
at24cxxWrite                                      ../SDK/lib/libseos.a(dll.o)
atoi                                              /cygdrive/c/ArmToolchain/arm-linux-uclibc/bin/../../lib/libc.a(atol.os)
                                                  ../obj/Src/Menu.o
                                                  ../obj/Src/tranproc.o
                                                  ../obj/Src/posparams.o
                                                  ../obj/Src/PosLib.o
                                                  ../obj/Src/otherfunc.o
                                                  ../obj/Src/NewPosApi.o
                                                  ../obj/Src/Commlib.o
                                                  ../obj/Src/appsetup.o
                                                  ../obj/Src/wireless.o
atol                                              /cygdrive/c/ArmToolchain/arm-linux-uclibc/bin/../../lib/libc.a(atol.os)
                                                  ../obj/Src/Menu.o
                                                  ../obj/Src/LocalFtp.o
                                                  ../obj/Src/tranproc.o
                                                  ../obj/Src/trancomm.o
                                                  ../obj/Src/posparams.o
                                                  ../obj/Src/posfiles.o
                                                  ../obj/Src/otherfunc.o
                                                  ../obj/Src/MathLib.o
                                                  ../obj/Src/appsetup.o
auxLongToBCD                                      ../obj/Src/emvtranproc.o
btowc                                             /cygdrive/c/ArmToolchain/arm-linux-uclibc/bin/../../lib/libc.a(btowc.os)
cEMVUnknowTLVData                                 ../obj/Src/emvtranproc.o
calculate_dial_statics                            ../obj/Src/otherfunc.o
                                                  ../obj/Src/tranproc.o
cleanse_ctr                                       ../SDK/lib/libcrypto.a(mem_clr.o)
close                                             /cygdrive/c/ArmToolchain/arm-linux-uclibc/bin/../../lib/libc.a(close.os)
console_init                                      ../SDK/lib/libcrypto.a(console.o)
contactness_close                                 ../obj/Src/New8110_ICC.o
                                                  ../obj/Src/qpbocProc.o
                                                  ../obj/Src/Menu.o
                                                  ../obj/Src/otherfunc.o
                                                  ../obj/Src/getcard.o
contactness_exchangeapdu                          ../obj/Src/New8110_ICC.o
                                                  ../obj/Src/qpbocProc.o
                                                  ../obj/Src/Menu.o
                                                  ../obj/Src/otherfunc.o
contactness_open                                  ../obj/Src/New8110_ICC.o
                                                  ../obj/Src/otherfunc.o
                                                  ../obj/Src/getcard.o
contactness_poll                                  ../obj/Src/New8110_ICC.o
                                                  ../obj/Src/qpbocProc.o
                                                  ../obj/Src/otherfunc.o
                                                  ../obj/Src/getcard.o
contactness_poweredon                             ../obj/Src/New8110_ICC.o
                                                  ../obj/Src/getcard.o
contactness_poweroff                              ../obj/Src/New8110_ICC.o
                                                  ../obj/Src/otherfunc.o
dat_asclen                                        ../obj/Src/NewPosApi.o
dial_stat                                         ../obj/Src/globalvar.o
                                                  ../obj/Src/tranproc.o
                                                  ../obj/Src/otherfunc.o
                                                  ../obj/Src/main.o
                                                  ../obj/Src/Commlib.o
dispRetCode                                       ../obj/Src/otherfunc.o
                                                  ../obj/Src/otherTxn.o
                                                  ../obj/Src/Menu.o
                                                  ../obj/Src/tranproc.o
emvCertCheck                                      ../obj/Src/emvtranproc.o
emvCheckCRL                                       ../obj/Src/emvtranproc.o
                                                  ../obj/Src/main.o
emvCheckExceptPAN                                 ../obj/Src/emvtranproc.o
                                                  ../obj/Src/main.o
emvDispPINOK                                      ../obj/Src/emvtranproc.o
emvGetOnlinePIN                                   ../obj/Src/emvtranproc.o
emvGetTransAmount                                 ../obj/Src/emvtranproc.o
emvGetTransLogAmount                              ../obj/Src/emvtranproc.o
                                                  ../obj/Src/main.o
emvInputCashBackAmount                            ../obj/Src/emvtranproc.o
emvInputTransAmount                               ../obj/Src/emvtranproc.o
emvLoadAIDList                                    ../obj/Src/posfiles.o
                                                  ../obj/Src/main.o
emvLoadCAPKList                                   ../obj/Src/posfiles.o
                                                  ../obj/Src/main.o
emvSaveAIDList                                    ../obj/Src/posfiles.o
                                                  ../obj/Src/tranproc.o
emvSaveCAPKList                                   ../obj/Src/posfiles.o
                                                  ../obj/Src/tranproc.o
emv_add_one_aid_info                              ../SDK/lib/libemv.a(emvaidlist.o)
                                                  ../obj/Src/tranproc.o
                                                  ../obj/Src/main.o
emv_add_one_ca_public_key                         ../SDK/lib/libemv.a(emvcapk.o)
                                                  ../obj/Src/tranproc.o
                                                  ../obj/Src/main.o
emv_add_one_candapp                               ../SDK/lib/libemv.a(emvcandapp.o)
                                                  ../SDK/lib/libemv.a(qpboc_funcs.o)
                                                  ../SDK/lib/libemv.a(emvappselect.o)
emv_add_one_ddf                                   ../SDK/lib/libemv.a(emvddflist.o)
                                                  ../SDK/lib/libemv.a(emvappselect.o)
emv_add_one_ddf_record_no                         ../SDK/lib/libemv.a(emvddflist.o)
                                                  ../SDK/lib/libemv.a(emvappselect.o)
emv_add_one_odalist                               ../SDK/lib/libemv.a(emvodalist.o)
                                                  ../SDK/lib/libemv.a(qpboc_funcs.o)
                                                  ../SDK/lib/libemv.a(emvreadappdata.o)
emv_advice_process                                ../obj/Src/emvtranproc.o
                                                  ../obj/Src/main.o
emv_append_cda_data                               ../SDK/lib/libemv.a(emv_core_func.o)
                                                  ../SDK/lib/libemv.a(emvtac.o)
                                                  ../SDK/lib/libemv.a(emvappselect.o)
emv_append_log_data                               ../SDK/lib/libemv.a(emv_core_func.o)
                                                  ../SDK/lib/libemv.a(emvappselect.o)
emv_append_script_result                          ../SDK/lib/libemv.a(emv_core_func.o)
                                                  ../SDK/lib/libemv.a(emvcomplete.o)
emv_application_select                            ../SDK/lib/libemv.a(emvappselect.o)
                                                  ../obj/Src/otherfunc.o
emv_application_select_no_gpo                     ../SDK/lib/libemv.a(emvappselect.o)
                                                  ../obj/Src/Menu.o
emv_bcd_to_long                                   ../SDK/lib/libemv.a(emvpubfunc.o)
                                                  ../SDK/lib/libemv.a(emvtermrisk.o)
                                                  ../SDK/lib/libemv.a(emvcvm.o)
                                                  ../SDK/lib/libemv.a(emvcomplete.o)
                                                  ../SDK/lib/libemv.a(emvappselect.o)
emv_binarytohex                                   ../SDK/lib/libemv.a(emvpubfunc.o)
                                                  ../SDK/lib/libemv.a(qpbocapi.o)
emv_candidate_apps_selection                      ../obj/Src/emvtranproc.o
                                                  ../obj/Src/main.o
emv_cardholder_verify                             ../SDK/lib/libemv.a(emvcvm.o)
                                                  ../obj/Src/emvtranproc.o
emv_cda_complete                                  ../SDK/lib/libemv.a(emvoda.o)
                                                  ../SDK/lib/libemv.a(emvtac.o)
emv_cda_first_step                                ../SDK/lib/libemv.a(emvoda.o)
                                                  ../SDK/lib/libemv.a(emvtac.o)
emv_change_ec_balance                             ../SDK/lib/libemv.a(emvtac.o)
emv_char_to_long                                  ../SDK/lib/libemv.a(emvpubfunc.o)
                                                  ../SDK/lib/libemv.a(emvtermrisk.o)
                                                  ../SDK/lib/libemv.a(emvcvm.o)
emv_check_action_default                          ../SDK/lib/libemv.a(emvtac.o)
                                                  ../SDK/lib/libemv.a(emvcomplete.o)
emv_check_action_denial                           ../SDK/lib/libemv.a(emvtac.o)
                                                  ../SDK/lib/libemv.a(emvcomplete.o)
emv_check_action_online                           ../SDK/lib/libemv.a(emvtac.o)
                                                  ../SDK/lib/libemv.a(emvcomplete.o)
emv_check_adf_fci                                 ../SDK/lib/libemv.a(emvappselect.o)
                                                  ../SDK/lib/libemv.a(qpboc_funcs.o)
emv_check_advice_flag                             ../SDK/lib/libemv.a(emv_core_func.o)
                                                  ../SDK/lib/libemv.a(emvtac.o)
emv_check_aid_in_terminal                         ../SDK/lib/libemv.a(emvaidlist.o)
                                                  ../SDK/lib/libemv.a(emvcandapp.o)
emv_check_cda_flag                                ../SDK/lib/libemv.a(emv_core_func.o)
                                                  ../SDK/lib/libemv.a(emvcomplete.o)
emv_check_certificate                             ../obj/Src/emvtranproc.o
                                                  ../obj/Src/main.o
emv_check_data_element                            ../SDK/lib/libemv.a(emvdte.o)
                                                  ../SDK/lib/libemv.a(qpboc_funcs.o)
                                                  ../SDK/lib/libemv.a(qpbocapi.o)
                                                  ../SDK/lib/libemv.a(emvtlv.o)
                                                  ../SDK/lib/libemv.a(emvtermrisk.o)
                                                  ../SDK/lib/libemv.a(emvtac.o)
                                                  ../SDK/lib/libemv.a(emvreadappdata.o)
                                                  ../SDK/lib/libemv.a(emvprocrest.o)
                                                  ../SDK/lib/libemv.a(emvpinverify.o)
                                                  ../SDK/lib/libemv.a(emvoda.o)
                                                  ../SDK/lib/libemv.a(emvcvm.o)
                                                  ../SDK/lib/libemv.a(emvcomplete.o)
                                                  ../SDK/lib/libemv.a(emvappselect.o)
                                                  ../obj/Src/Menu.o
emv_check_data_element_duplicate                  ../SDK/lib/libemv.a(emvtlv.o)
                                                  ../SDK/lib/libemv.a(qpboc_funcs.o)
                                                  ../SDK/lib/libemv.a(emvtac.o)
                                                  ../SDK/lib/libemv.a(emvreadappdata.o)
                                                  ../SDK/lib/libemv.a(emvoda.o)
                                                  ../SDK/lib/libemv.a(emvappselect.o)
emv_check_data_element_in_template                ../SDK/lib/libemv.a(emvdte.o)
                                                  ../SDK/lib/libemv.a(emvtlv.o)
                                                  ../SDK/lib/libemv.a(emvappselect.o)
emv_check_data_element_len_valid                  ../SDK/lib/libemv.a(emvdte.o)
                                                  ../SDK/lib/libemv.a(qpboc_funcs.o)
                                                  ../SDK/lib/libemv.a(emvtlv.o)
                                                  ../SDK/lib/libemv.a(emvicc.o)
                                                  ../SDK/lib/libemv.a(emvappselect.o)
emv_check_date_validity                           ../SDK/lib/libemv.a(emvpubfunc.o)
                                                  ../SDK/lib/libemv.a(emvreadappdata.o)
                                                  ../SDK/lib/libemv.a(emvcapk.o)
emv_check_force_accept                            ../SDK/lib/libemv.a(emv_core_func.o)
                                                  ../SDK/lib/libemv.a(emvtac.o)
emv_check_issuer_code_table_index_flag            ../SDK/lib/libemv.a(emv_core_func.o)
                                                  ../SDK/lib/libemv.a(emvappselect.o)
emv_check_offline_encrypted_pin                   ../SDK/lib/libemv.a(emvpinverify.o)
                                                  ../SDK/lib/libemv.a(emvcvm.o)
emv_check_offline_plaintext_pin                   ../SDK/lib/libemv.a(emvpinverify.o)
                                                  ../SDK/lib/libemv.a(emvcvm.o)
emv_check_online_encrypted_pin                    ../SDK/lib/libemv.a(emvpinverify.o)
                                                  ../SDK/lib/libemv.a(emvcvm.o)
                                                  ../SDK/lib/libemv.a(emvcomplete.o)
emv_check_online_flag                             ../SDK/lib/libemv.a(emv_core_func.o)
emv_check_online_pin                              ../obj/Src/emvtranproc.o
                                                  ../obj/Src/main.o
emv_check_prefer_name_flag                        ../SDK/lib/libemv.a(emv_core_func.o)
                                                  ../SDK/lib/libemv.a(emvappselect.o)
emv_check_send_log_command_flag                   ../SDK/lib/libemv.a(emv_core_func.o)
                                                  ../SDK/lib/libemv.a(emvappselect.o)
emv_check_signature                               ../SDK/lib/libemv.a(emv_core_func.o)
emv_check_tag_in_dol                              ../SDK/lib/libemv.a(emvdol.o)
                                                  ../SDK/lib/libemv.a(qpboc_funcs.o)
                                                  ../SDK/lib/libemv.a(emvtac.o)
                                                  ../SDK/lib/libemv.a(emvoda.o)
                                                  ../SDK/lib/libemv.a(emvappselect.o)
emv_check_tlv                                     ../SDK/lib/libemv.a(emvtlv.o)
                                                  ../SDK/lib/libemv.a(qpboc_funcs.o)
                                                  ../SDK/lib/libemv.a(emvtac.o)
                                                  ../SDK/lib/libemv.a(emvreadappdata.o)
                                                  ../SDK/lib/libemv.a(emvoda.o)
                                                  ../SDK/lib/libemv.a(emvicc.o)
                                                  ../SDK/lib/libemv.a(emvappselect.o)
emv_contactless_active_picc                       ../SDK/lib/libseos.a(dll.o)
                                                  ../obj/Src/New8110_ICC.o
emv_contactless_deactive_picc                     ../SDK/lib/libseos.a(dll.o)
                                                  ../obj/Src/New8110_ICC.o
emv_contactless_exchange_apdu                     ../SDK/lib/libseos.a(dll.o)
                                                  ../obj/Src/New8110_ICC.o
emv_contactless_get_lasterror                     ../SDK/lib/libseos.a(dll.o)
                                                  ../obj/Src/New8110_ICC.o
emv_contactless_obtain_status                     ../SDK/lib/libseos.a(dll.o)
                                                  ../obj/Src/otherfunc.o
                                                  ../obj/Src/New8110_ICC.o
emv_dda                                           ../SDK/lib/libemv.a(emvoda.o)
emv_del_all_icc_data_element                      ../SDK/lib/libemv.a(emvdte.o)
                                                  ../SDK/lib/libemv.a(qpboc_funcs.o)
                                                  ../SDK/lib/libemv.a(qpbocapi.o)
                                                  ../SDK/lib/libemv.a(emvappselect.o)
emv_del_data_element                              ../SDK/lib/libemv.a(emvdte.o)
                                                  ../SDK/lib/libemv.a(qpboc_funcs.o)
                                                  ../SDK/lib/libemv.a(qpbocapi.o)
                                                  ../SDK/lib/libemv.a(emvtlv.o)
                                                  ../SDK/lib/libemv.a(emvtac.o)
                                                  ../SDK/lib/libemv.a(emvcomplete.o)
                                                  ../SDK/lib/libemv.a(emvappselect.o)
                                                  ../obj/Src/emvtranproc.o
emv_del_one_aid_info                              ../SDK/lib/libemv.a(emvaidlist.o)
                                                  ../obj/Src/tranproc.o
emv_delete_all_ca_public_keys                     ../SDK/lib/libemv.a(emvcapk.o)
                                                  ../obj/Src/tranproc.o
                                                  ../obj/Src/main.o
emv_delete_all_terminal_aids                      ../SDK/lib/libemv.a(emvaidlist.o)
                                                  ../obj/Src/tranproc.o
                                                  ../obj/Src/main.o
emv_delete_last_ddf_list                          ../SDK/lib/libemv.a(emvddflist.o)
                                                  ../SDK/lib/libemv.a(emvappselect.o)
emv_delete_one_ca_public_key                      ../SDK/lib/libemv.a(emvcapk.o)
emv_delete_one_candapp                            ../SDK/lib/libemv.a(emvcandapp.o)
                                                  ../SDK/lib/libemv.a(qpbocapi.o)
                                                  ../SDK/lib/libemv.a(emvappselect.o)
emv_dol_padding                                   ../SDK/lib/libemv.a(emvdol.o)
                                                  ../SDK/lib/libemv.a(qpboc_funcs.o)
                                                  ../SDK/lib/libemv.a(emvtac.o)
                                                  ../SDK/lib/libemv.a(emvoda.o)
                                                  ../SDK/lib/libemv.a(emvappselect.o)
emv_exchange_apdu                                 ../SDK/lib/libemv.a(emvicc.o)
emv_extract_sdad                                  ../SDK/lib/libemv.a(emvtac.o)
                                                  ../SDK/lib/libemv.a(emvoda.o)
emv_fDDA                                          ../SDK/lib/libemv.a(qpboc_funcs.o)
emv_generate_ac                                   ../SDK/lib/libemv.a(emvtac.o)
                                                  ../SDK/lib/libemv.a(emvcomplete.o)
emv_get_aid_info_num                              ../SDK/lib/libemv.a(emvaidlist.o)
                                                  ../SDK/lib/libemv.a(qpboc_funcs.o)
                                                  ../SDK/lib/libemv.a(qpbocapi.o)
                                                  ../SDK/lib/libemv.a(emvappselect.o)
emv_get_all_candapps                              ../SDK/lib/libemv.a(emvcandapp.o)
                                                  ../obj/Src/emvtranproc.o
emv_get_amount                                    ../obj/Src/emvtranproc.o
                                                  ../obj/Src/otherfunc.o
                                                  ../obj/Src/main.o
emv_get_ca_public_key_num                         ../SDK/lib/libemv.a(emvcapk.o)
emv_get_callback_func                             ../SDK/lib/libemv.a(emv_core_func.o)
                                                  ../SDK/lib/libemv.a(qpboc_funcs.o)
                                                  ../SDK/lib/libemv.a(emvtermrisk.o)
                                                  ../SDK/lib/libemv.a(emvtac.o)
                                                  ../SDK/lib/libemv.a(emvpinverify.o)
                                                  ../SDK/lib/libemv.a(emvoda.o)
                                                  ../SDK/lib/libemv.a(emvcvm.o)
                                                  ../SDK/lib/libemv.a(emvcomplete.o)
                                                  ../SDK/lib/libemv.a(emvappselect.o)
emv_get_candapp_num                               ../SDK/lib/libemv.a(emvcandapp.o)
                                                  ../SDK/lib/libemv.a(qpboc_funcs.o)
                                                  ../SDK/lib/libemv.a(qpbocapi.o)
                                                  ../SDK/lib/libemv.a(emvappselect.o)
emv_get_cda_data                                  ../SDK/lib/libemv.a(emv_core_func.o)
                                                  ../SDK/lib/libemv.a(emvoda.o)
emv_get_core_init_parameter                       ../SDK/lib/libemv.a(emv_core_func.o)
                                                  ../SDK/lib/libemv.a(qpbocapi.o)
                                                  ../SDK/lib/libemv.a(emvprocrest.o)
                                                  ../SDK/lib/libemv.a(emvcvm.o)
                                                  ../SDK/lib/libemv.a(emvappselect.o)
                                                  ../obj/Src/qpbocProc.o
                                                  ../obj/Src/otherfunc.o
emv_get_current_application                       ../SDK/lib/libemv.a(emv_core_func.o)
                                                  ../SDK/lib/libemv.a(qpbocapi.o)
                                                  ../SDK/lib/libemv.a(emvtermrisk.o)
                                                  ../SDK/lib/libemv.a(emvtac.o)
                                                  ../SDK/lib/libemv.a(emvoda.o)
                                                  ../SDK/lib/libemv.a(emvappselect.o)
emv_get_data_element                              ../SDK/lib/libemv.a(emvdte.o)
                                                  ../SDK/lib/libemv.a(qpboc_funcs.o)
                                                  ../SDK/lib/libemv.a(qpbocapi.o)
                                                  ../SDK/lib/libemv.a(emvtermrisk.o)
                                                  ../SDK/lib/libemv.a(emvtac.o)
                                                  ../SDK/lib/libemv.a(emvreadappdata.o)
                                                  ../SDK/lib/libemv.a(emvprocrest.o)
                                                  ../SDK/lib/libemv.a(emvpinverify.o)
                                                  ../SDK/lib/libemv.a(emvoda.o)
                                                  ../SDK/lib/libemv.a(emvdol.o)
                                                  ../SDK/lib/libemv.a(emvcvm.o)
                                                  ../SDK/lib/libemv.a(emvcomplete.o)
                                                  ../SDK/lib/libemv.a(emvappselect.o)
                                                  ../SDK/lib/libemv.a(emv_core_func.o)
                                                  ../obj/Src/qpbocProc.o
                                                  ../obj/Src/Menu.o
                                                  ../obj/Src/emvtranproc.o
                                                  ../obj/Src/otherfunc.o
emv_get_data_element_attr                         ../SDK/lib/libemv.a(emvdte.o)
                                                  ../SDK/lib/libemv.a(emvdol.o)
emv_get_data_element_from_73                      ../SDK/lib/libemv.a(emvtlv.o)
emv_get_data_element_from_77                      ../SDK/lib/libemv.a(emvtlv.o)
                                                  ../SDK/lib/libemv.a(emvtac.o)
                                                  ../SDK/lib/libemv.a(emvoda.o)
                                                  ../SDK/lib/libemv.a(emvappselect.o)
emv_get_data_element_from_bf0c                    ../SDK/lib/libemv.a(emvtlv.o)
emv_get_data_element_type                         ../SDK/lib/libemv.a(emvdte.o)
                                                  ../SDK/lib/libemv.a(qpboc_funcs.o)
                                                  ../SDK/lib/libemv.a(emvtlv.o)
emv_get_ddf_num                                   ../SDK/lib/libemv.a(emvddflist.o)
emv_get_issuer_code_table_index                   ../SDK/lib/libemv.a(emv_core_func.o)
                                                  ../SDK/lib/libemv.a(emvappselect.o)
emv_get_kernel_type                               ../SDK/lib/libemv.a(emvconfigure.o)
                                                  ../SDK/lib/libemv.a(emvtermrisk.o)
                                                  ../SDK/lib/libemv.a(emvreadappdata.o)
                                                  ../SDK/lib/libemv.a(emvpinverify.o)
                                                  ../SDK/lib/libemv.a(emvoda.o)
                                                  ../SDK/lib/libemv.a(emvdte.o)
                                                  ../SDK/lib/libemv.a(emvcvm.o)
                                                  ../SDK/lib/libemv.a(emvcomplete.o)
                                                  ../SDK/lib/libemv.a(emvappselect.o)
emv_get_language_prefer                           ../SDK/lib/libemv.a(emv_core_func.o)
                                                  ../SDK/lib/libemv.a(emvappselect.o)
emv_get_last_ddf                                  ../SDK/lib/libemv.a(emvddflist.o)
                                                  ../SDK/lib/libemv.a(emvappselect.o)
emv_get_last_iccard_sw                            ../SDK/lib/libemv.a(emvicc.o)
                                                  ../obj/Src/Menu.o
                                                  ../obj/Src/emvtranproc.o
emv_get_len                                       ../SDK/lib/libemv.a(emvtlv.o)
                                                  ../SDK/lib/libemv.a(emvdol.o)
                                                  ../SDK/lib/libemv.a(emvcomplete.o)
                                                  ../SDK/lib/libemv.a(emvappselect.o)
emv_get_log_data                                  ../SDK/lib/libemv.a(emv_core_func.o)
                                                  ../SDK/lib/libemv.a(emvappselect.o)
emv_get_log_entry                                 ../SDK/lib/libemv.a(emv_core_func.o)
                                                  ../SDK/lib/libemv.a(emvappselect.o)
emv_get_log_item                                  ../SDK/lib/libemv.a(emvappselect.o)
                                                  ../obj/Src/Menu.o
emv_get_mck_configure                             ../SDK/lib/libemv.a(emvconfigure.o)
                                                  ../SDK/lib/libemv.a(qpboc_funcs.o)
                                                  ../SDK/lib/libemv.a(qpbocapi.o)
                                                  ../SDK/lib/libemv.a(emvtermrisk.o)
                                                  ../SDK/lib/libemv.a(emvtac.o)
                                                  ../SDK/lib/libemv.a(emvprocrest.o)
                                                  ../SDK/lib/libemv.a(emvpinverify.o)
                                                  ../SDK/lib/libemv.a(emvoda.o)
                                                  ../SDK/lib/libemv.a(emvcvm.o)
                                                  ../SDK/lib/libemv.a(emvcomplete.o)
                                                  ../SDK/lib/libemv.a(emvcandapp.o)
                                                  ../SDK/lib/libemv.a(emvappselect.o)
                                                  ../obj/Src/emvtranproc.o
                                                  ../obj/Src/tranprint.o
                                                  ../obj/Src/otherfunc.o
                                                  ../obj/Src/main.o
emv_get_odalist                                   ../SDK/lib/libemv.a(emvodalist.o)
                                                  ../SDK/lib/libemv.a(emvoda.o)
emv_get_odalist_num                               ../SDK/lib/libemv.a(emvodalist.o)
                                                  ../SDK/lib/libemv.a(emvoda.o)
emv_get_odalist_sfi                               ../SDK/lib/libemv.a(emvodalist.o)
                                                  ../SDK/lib/libemv.a(emvoda.o)
emv_get_one_aid_info                              ../SDK/lib/libemv.a(emvaidlist.o)
                                                  ../SDK/lib/libemv.a(qpboc_funcs.o)
                                                  ../SDK/lib/libemv.a(qpbocapi.o)
                                                  ../SDK/lib/libemv.a(emvappselect.o)
                                                  ../obj/Src/tranproc.o
                                                  ../obj/Src/tranprint.o
emv_get_one_ca_public_key                         ../SDK/lib/libemv.a(emvcapk.o)
                                                  ../SDK/lib/libemv.a(emvoda.o)
                                                  ../obj/Src/tranproc.o
emv_get_one_ca_public_key_by_no                   ../SDK/lib/libemv.a(emvcapk.o)
emv_get_one_candapp                               ../SDK/lib/libemv.a(emvcandapp.o)
                                                  ../SDK/lib/libemv.a(qpboc_funcs.o)
                                                  ../SDK/lib/libemv.a(qpbocapi.o)
                                                  ../SDK/lib/libemv.a(emvappselect.o)
emv_get_online_result                             ../SDK/lib/libemv.a(emv_core_func.o)
emv_get_pin                                       ../obj/Src/emvtranproc.o
                                                  ../obj/Src/main.o
emv_get_pin_publickey                             ../SDK/lib/libemv.a(emvpinverify.o)
emv_get_pin_try_count                             ../SDK/lib/libemv.a(emvpinverify.o)
emv_get_random_bytes                              ../SDK/lib/libemv.a(emvpubfunc.o)
                                                  ../SDK/lib/libemv.a(qpbocapi.o)
                                                  ../SDK/lib/libemv.a(emvtermrisk.o)
                                                  ../SDK/lib/libemv.a(emvicc.o)
                                                  ../SDK/lib/libemv.a(emvappselect.o)
emv_get_script_result                             ../SDK/lib/libemv.a(emv_core_func.o)
                                                  ../obj/Src/emvtranproc.o
emv_get_tag                                       ../SDK/lib/libemv.a(emvtlv.o)
                                                  ../SDK/lib/libemv.a(emvdol.o)
                                                  ../SDK/lib/libemv.a(emvcomplete.o)
                                                  ../SDK/lib/libemv.a(emvappselect.o)
emv_get_tag_info                                  ../SDK/lib/libemv.a(emvtlv.o)
                                                  ../SDK/lib/libemv.a(qpboc_funcs.o)
                                                  ../SDK/lib/libemv.a(emvtac.o)
                                                  ../SDK/lib/libemv.a(emvoda.o)
                                                  ../SDK/lib/libemv.a(emvcomplete.o)
                                                  ../SDK/lib/libemv.a(emvappselect.o)
emv_get_tsi_bit                                   ../SDK/lib/libemv.a(emvdte.o)
                                                  ../SDK/lib/libemv.a(emvcvm.o)
emv_get_tvr_bit                                   ../SDK/lib/libemv.a(emvdte.o)
emv_hextobinary                                   ../SDK/lib/libemv.a(emvpubfunc.o)
                                                  ../SDK/lib/libemv.a(qpbocapi.o)
emv_hextonum                                      ../SDK/lib/libemv.a(emvpubfunc.o)
emv_iccard_external_authenticate                  ../SDK/lib/libemv.a(emvicc.o)
                                                  ../SDK/lib/libemv.a(emvcomplete.o)
emv_iccard_gac                                    ../SDK/lib/libemv.a(emvicc.o)
                                                  ../SDK/lib/libemv.a(emvtac.o)
emv_iccard_get_challenge                          ../SDK/lib/libemv.a(emvicc.o)
                                                  ../SDK/lib/libemv.a(emvpinverify.o)
emv_iccard_get_data                               ../SDK/lib/libemv.a(emvicc.o)
                                                  ../SDK/lib/libemv.a(emvtermrisk.o)
                                                  ../SDK/lib/libemv.a(emvpinverify.o)
                                                  ../SDK/lib/libemv.a(emvappselect.o)
emv_iccard_get_ec_balance                         ../SDK/lib/libemv.a(emvicc.o)
                                                  ../SDK/lib/libemv.a(emvreadappdata.o)
emv_iccard_get_ec_balance_limit                   ../SDK/lib/libemv.a(emvicc.o)
emv_iccard_get_ec_reset_threshold                 ../SDK/lib/libemv.a(emvicc.o)
                                                  ../SDK/lib/libemv.a(emvreadappdata.o)
emv_iccard_get_ec_single_limit                    ../SDK/lib/libemv.a(emvicc.o)
emv_iccard_gpo                                    ../SDK/lib/libemv.a(emvicc.o)
                                                  ../SDK/lib/libemv.a(qpboc_funcs.o)
                                                  ../SDK/lib/libemv.a(emvappselect.o)
emv_iccard_internal_authenticate                  ../SDK/lib/libemv.a(emvicc.o)
                                                  ../SDK/lib/libemv.a(emvoda.o)
emv_iccard_process_script                         ../SDK/lib/libemv.a(emvicc.o)
                                                  ../SDK/lib/libemv.a(emvcomplete.o)
emv_iccard_read_record                            ../SDK/lib/libemv.a(emvicc.o)
                                                  ../SDK/lib/libemv.a(qpboc_funcs.o)
                                                  ../SDK/lib/libemv.a(emvreadappdata.o)
                                                  ../SDK/lib/libemv.a(emvappselect.o)
emv_iccard_select                                 ../SDK/lib/libemv.a(emvicc.o)
                                                  ../SDK/lib/libemv.a(qpboc_funcs.o)
                                                  ../SDK/lib/libemv.a(emvappselect.o)
emv_iccard_verify_offline_encrypt_pin             ../SDK/lib/libemv.a(emvicc.o)
                                                  ../SDK/lib/libemv.a(emvpinverify.o)
emv_iccard_verify_offline_plain_pin               ../SDK/lib/libemv.a(emvicc.o)
                                                  ../SDK/lib/libemv.a(emvpinverify.o)
emv_init_amex_data_element                        ../SDK/lib/libemv.a(emvdte.o)
emv_init_callback_func                            ../SDK/lib/libemv.a(emv_core_func.o)
                                                  ../obj/Src/main.o
emv_init_candapp_lists                            ../SDK/lib/libemv.a(emvcandapp.o)
                                                  ../SDK/lib/libemv.a(qpboc_funcs.o)
                                                  ../SDK/lib/libemv.a(emvappselect.o)
emv_init_cda_data                                 ../SDK/lib/libemv.a(emv_core_func.o)
                                                  ../SDK/lib/libemv.a(emvappselect.o)
emv_init_data_element                             ../SDK/lib/libemv.a(emvdte.o)
                                                  ../obj/Src/main.o
emv_init_ddf_lists                                ../SDK/lib/libemv.a(emvddflist.o)
                                                  ../SDK/lib/libemv.a(emvappselect.o)
emv_init_jcb_data_element                         ../SDK/lib/libemv.a(emvdte.o)
emv_init_log_data                                 ../SDK/lib/libemv.a(emv_core_func.o)
                                                  ../SDK/lib/libemv.a(qpbocapi.o)
                                                  ../SDK/lib/libemv.a(emvappselect.o)
emv_init_mc_data_element                          ../SDK/lib/libemv.a(emvdte.o)
emv_init_oda_list                                 ../SDK/lib/libemv.a(emvodalist.o)
                                                  ../SDK/lib/libemv.a(qpboc_funcs.o)
                                                  ../SDK/lib/libemv.a(emvreadappdata.o)
emv_init_pboc_data_element                        ../SDK/lib/libemv.a(emvdte.o)
emv_init_script_result                            ../SDK/lib/libemv.a(emv_core_func.o)
                                                  ../SDK/lib/libemv.a(qpbocapi.o)
                                                  ../SDK/lib/libemv.a(emvappselect.o)
emv_init_visa_data_element                        ../SDK/lib/libemv.a(emvdte.o)
emv_issuer_referral_process                       ../obj/Src/emvtranproc.o
                                                  ../obj/Src/main.o
emv_long_to_bcd                                   ../SDK/lib/libemv.a(emvpubfunc.o)
                                                  ../SDK/lib/libemv.a(qpbocapi.o)
                                                  ../SDK/lib/libemv.a(emvappselect.o)
emv_long_to_char                                  ../SDK/lib/libemv.a(emvpubfunc.o)
                                                  ../SDK/lib/libemv.a(qpbocapi.o)
                                                  ../SDK/lib/libemv.a(emvappselect.o)
emv_multi_language_selection                      ../obj/Src/emvtranproc.o
                                                  ../obj/Src/main.o
emv_offline_data_authentication                   ../SDK/lib/libemv.a(emvoda.o)
                                                  ../obj/Src/otherfunc.o
emv_one_to_two                                    ../SDK/lib/libemv.a(emvpubfunc.o)
                                                  ../SDK/lib/libemv.a(emvcandapp.o)
emv_online_transaction                            ../SDK/lib/libemv.a(emvcomplete.o)
                                                  ../obj/Src/emvtranproc.o
emv_online_transaction_process                    ../obj/Src/emvtranproc.o
                                                  ../obj/Src/main.o
emv_pboc_check_ec                                 ../SDK/lib/libemv.a(emvconfigure.o)
                                                  ../SDK/lib/libemv.a(emvappselect.o)
emv_pboc_check_exception_File                     ../SDK/lib/libemv.a(qpboc_funcs.o)
                                                  ../SDK/lib/libemv.a(qpbocapi.o)
emv_pboc_check_expired                            ../SDK/lib/libemv.a(qpboc_funcs.o)
                                                  ../SDK/lib/libemv.a(qpbocapi.o)
emv_pboc_ec_enable                                ../SDK/lib/libemv.a(emvconfigure.o)
                                                  ../obj/Src/Menu.o
                                                  ../obj/Src/otherfunc.o
emv_pboc_get_ec_ttl                               ../SDK/lib/libemv.a(emvconfigure.o)
                                                  ../SDK/lib/libemv.a(emvappselect.o)
emv_pboc_set_ec_ttl                               ../SDK/lib/libemv.a(emvconfigure.o)
                                                  ../obj/Src/Menu.o
emv_process_restriction                           ../SDK/lib/libemv.a(emvprocrest.o)
                                                  ../obj/Src/emvtranproc.o
emv_qpboc_build_candidatelist                     ../SDK/lib/libemv.a(qpboc_funcs.o)
                                                  ../SDK/lib/libemv.a(qpbocapi.o)
emv_qpboc_check_application_expired               ../SDK/lib/libemv.a(qpboc_funcs.o)
emv_qpboc_check_failed_log_save_flag              ../SDK/lib/libemv.a(qpboc_funcs.o)
                                                  ../SDK/lib/libemv.a(qpbocapi.o)
emv_qpboc_complete                                ../SDK/lib/libemv.a(qpbocapi.o)
                                                  ../obj/Src/qpbocProc.o
emv_qpboc_dda                                     ../SDK/lib/libemv.a(qpboc_funcs.o)
                                                  ../SDK/lib/libemv.a(qpbocapi.o)
emv_qpboc_get_app_type                            ../SDK/lib/libemv.a(qpbocapi.o)
                                                  ../obj/Src/otherfunc.o
emv_qpboc_get_parameter                           ../SDK/lib/libemv.a(qpbocapi.o)
emv_qpboc_gpo                                     ../SDK/lib/libemv.a(qpboc_funcs.o)
                                                  ../SDK/lib/libemv.a(qpbocapi.o)
emv_qpboc_need_save_failed_log                    ../SDK/lib/libemv.a(qpbocapi.o)
                                                  ../obj/Src/qpbocProc.o
emv_qpboc_online_trans                            ../SDK/lib/libemv.a(qpboc_funcs.o)
                                                  ../SDK/lib/libemv.a(qpbocapi.o)
emv_qpboc_pre_transaction                         ../SDK/lib/libemv.a(qpbocapi.o)
                                                  ../obj/Src/qpbocProc.o
                                                  ../obj/Src/otherfunc.o
emv_qpboc_read_data                               ../SDK/lib/libemv.a(qpbocapi.o)
                                                  ../obj/Src/qpbocProc.o
                                                  ../obj/Src/otherfunc.o
emv_qpboc_readrecord                              ../SDK/lib/libemv.a(qpboc_funcs.o)
                                                  ../SDK/lib/libemv.a(qpbocapi.o)
emv_qpboc_require_online_pin                      ../SDK/lib/libemv.a(qpboc_funcs.o)
                                                  ../SDK/lib/libemv.a(qpbocapi.o)
emv_qpboc_save_tlv                                ../SDK/lib/libemv.a(qpboc_funcs.o)
emv_qpboc_select                                  ../SDK/lib/libemv.a(qpboc_funcs.o)
                                                  ../SDK/lib/libemv.a(qpbocapi.o)
emv_qpboc_select_no_gpo                           ../SDK/lib/libemv.a(qpbocapi.o)
emv_qpboc_set_faield_log_save_flag                ../SDK/lib/libemv.a(qpboc_funcs.o)
                                                  ../SDK/lib/libemv.a(qpbocapi.o)
emv_qpboc_set_parameter                           ../SDK/lib/libemv.a(qpbocapi.o)
                                                  ../obj/Src/qpbocProc.o
                                                  ../obj/Src/otherfunc.o
emv_qpboc_signature_needed                        ../SDK/lib/libemv.a(qpbocapi.o)
emv_read_app_data                                 ../SDK/lib/libemv.a(emvreadappdata.o)
                                                  ../obj/Src/otherfunc.o
emv_read_log_record                               ../SDK/lib/libemv.a(emvappselect.o)
                                                  ../obj/Src/Menu.o
emv_return_pin_verify_result                      ../obj/Src/emvtranproc.o
                                                  ../obj/Src/main.o
emv_save_tlv                                      ../SDK/lib/libemv.a(emvtlv.o)
                                                  ../SDK/lib/libemv.a(emvtac.o)
                                                  ../SDK/lib/libemv.a(emvreadappdata.o)
                                                  ../SDK/lib/libemv.a(emvoda.o)
emv_save_tlv_sub                                  ../SDK/lib/libemv.a(emvtlv.o)
emv_sda                                           ../SDK/lib/libemv.a(emvoda.o)
emv_search_tag                                    ../SDK/lib/libemv.a(emvtlv.o)
                                                  ../SDK/lib/libemv.a(qpboc_funcs.o)
                                                  ../SDK/lib/libemv.a(emvtac.o)
                                                  ../SDK/lib/libemv.a(emvoda.o)
                                                  ../SDK/lib/libemv.a(emvicc.o)
                                                  ../SDK/lib/libemv.a(emvappselect.o)
emv_set_advice_flag                               ../SDK/lib/libemv.a(emv_core_func.o)
                                                  ../SDK/lib/libemv.a(emvtac.o)
                                                  ../SDK/lib/libemv.a(emvcomplete.o)
emv_set_cda_flag                                  ../SDK/lib/libemv.a(emv_core_func.o)
                                                  ../SDK/lib/libemv.a(emvoda.o)
emv_set_core_init_parameter                       ../SDK/lib/libemv.a(emv_core_func.o)
                                                  ../obj/Src/otherfunc.o
                                                  ../obj/Src/main.o
emv_set_current_application                       ../SDK/lib/libemv.a(emv_core_func.o)
                                                  ../SDK/lib/libemv.a(qpboc_funcs.o)
                                                  ../SDK/lib/libemv.a(qpbocapi.o)
                                                  ../SDK/lib/libemv.a(emvappselect.o)
emv_set_data_element                              ../SDK/lib/libemv.a(emvdte.o)
                                                  ../SDK/lib/libemv.a(qpboc_funcs.o)
                                                  ../SDK/lib/libemv.a(qpbocapi.o)
                                                  ../SDK/lib/libemv.a(emvtlv.o)
                                                  ../SDK/lib/libemv.a(emvtermrisk.o)
                                                  ../SDK/lib/libemv.a(emvtac.o)
                                                  ../SDK/lib/libemv.a(emvpinverify.o)
                                                  ../SDK/lib/libemv.a(emvoda.o)
                                                  ../SDK/lib/libemv.a(emvicc.o)
                                                  ../SDK/lib/libemv.a(emvcvm.o)
                                                  ../SDK/lib/libemv.a(emvcomplete.o)
                                                  ../SDK/lib/libemv.a(emvappselect.o)
                                                  ../SDK/lib/libemv.a(emv_core_func.o)
                                                  ../obj/Src/qpbocProc.o
                                                  ../obj/Src/Menu.o
                                                  ../obj/Src/emvtranproc.o
                                                  ../obj/Src/otherfunc.o
emv_set_force_accept_flag                         ../SDK/lib/libemv.a(emv_core_func.o)
                                                  ../SDK/lib/libemv.a(emvtac.o)
                                                  ../SDK/lib/libemv.a(emvcomplete.o)
emv_set_issuer_code_table_index                   ../SDK/lib/libemv.a(emv_core_func.o)
                                                  ../SDK/lib/libemv.a(emvappselect.o)
emv_set_issuer_code_table_index_flag              ../SDK/lib/libemv.a(emv_core_func.o)
                                                  ../SDK/lib/libemv.a(emvappselect.o)
emv_set_kernel_type                               ../SDK/lib/libemv.a(emvconfigure.o)
                                                  ../obj/Src/main.o
emv_set_language_prefer                           ../SDK/lib/libemv.a(emv_core_func.o)
                                                  ../SDK/lib/libemv.a(emvappselect.o)
emv_set_log_entry                                 ../SDK/lib/libemv.a(emv_core_func.o)
                                                  ../SDK/lib/libemv.a(qpbocapi.o)
                                                  ../SDK/lib/libemv.a(emvappselect.o)
emv_set_mck_configure                             ../SDK/lib/libemv.a(emvconfigure.o)
                                                  ../obj/Src/emvtranproc.o
                                                  ../obj/Src/otherfunc.o
                                                  ../obj/Src/main.o
emv_set_online_flag                               ../SDK/lib/libemv.a(emv_core_func.o)
                                                  ../SDK/lib/libemv.a(qpboc_funcs.o)
                                                  ../SDK/lib/libemv.a(qpbocapi.o)
                                                  ../SDK/lib/libemv.a(emvcomplete.o)
                                                  ../SDK/lib/libemv.a(emvappselect.o)
emv_set_online_result                             ../SDK/lib/libemv.a(emv_core_func.o)
emv_set_prefer_name_flag                          ../SDK/lib/libemv.a(emv_core_func.o)
                                                  ../SDK/lib/libemv.a(qpbocapi.o)
                                                  ../SDK/lib/libemv.a(emvappselect.o)
emv_set_send_log_command_flag                     ../SDK/lib/libemv.a(emv_core_func.o)
                                                  ../SDK/lib/libemv.a(qpbocapi.o)
                                                  ../SDK/lib/libemv.a(emvappselect.o)
emv_set_signature_flag                            ../SDK/lib/libemv.a(emv_core_func.o)
                                                  ../SDK/lib/libemv.a(qpbocapi.o)
                                                  ../SDK/lib/libemv.a(emvcvm.o)
                                                  ../SDK/lib/libemv.a(emvappselect.o)
emv_set_tsi_bit                                   ../SDK/lib/libemv.a(emvdte.o)
                                                  ../SDK/lib/libemv.a(emvtermrisk.o)
                                                  ../SDK/lib/libemv.a(emvtac.o)
                                                  ../SDK/lib/libemv.a(emvoda.o)
                                                  ../SDK/lib/libemv.a(emvcvm.o)
                                                  ../SDK/lib/libemv.a(emvcomplete.o)
emv_set_tvr_bit                                   ../SDK/lib/libemv.a(emvdte.o)
                                                  ../SDK/lib/libemv.a(emvtermrisk.o)
                                                  ../SDK/lib/libemv.a(emvtac.o)
                                                  ../SDK/lib/libemv.a(emvprocrest.o)
                                                  ../SDK/lib/libemv.a(emvpinverify.o)
                                                  ../SDK/lib/libemv.a(emvoda.o)
                                                  ../SDK/lib/libemv.a(emvcvm.o)
                                                  ../SDK/lib/libemv.a(emvcomplete.o)
emv_sort_candapps                                 ../SDK/lib/libemv.a(emvcandapp.o)
                                                  ../SDK/lib/libemv.a(qpboc_funcs.o)
                                                  ../SDK/lib/libemv.a(emvappselect.o)
emv_terminal_action_analysis                      ../SDK/lib/libemv.a(emvcomplete.o)
                                                  ../obj/Src/emvtranproc.o
emv_terminal_risk_manage                          ../SDK/lib/libemv.a(emvtermrisk.o)
                                                  ../obj/Src/emvtranproc.o
emv_verify_dynimal_ssad                           ../SDK/lib/libemv.a(emvoda.o)
emv_verify_icc_publickey_certificate              ../SDK/lib/libemv.a(emvoda.o)
                                                  ../SDK/lib/libemv.a(qpboc_funcs.o)
                                                  ../SDK/lib/libemv.a(emvpinverify.o)
emv_verify_issuer_publickey_certificate           ../SDK/lib/libemv.a(emvoda.o)
                                                  ../SDK/lib/libemv.a(qpboc_funcs.o)
                                                  ../SDK/lib/libemv.a(emvpinverify.o)
emv_verify_pin_publickey_certificate              ../SDK/lib/libemv.a(emvpinverify.o)
emv_verify_ssad                                   ../SDK/lib/libemv.a(emvoda.o)
entry_point                                       ../obj/Src/init.o
fileClose                                         ../SDK/lib/libseos.a(dll.o)
                                                  ../obj/Src/qpbocProc.o
                                                  ../obj/Src/LocalFtp.o
                                                  ../obj/Src/m1_tranproc.o
                                                  ../obj/Src/showDebug/showDebug.o
                                                  ../obj/Src/tranproc.o
                                                  ../obj/Src/tranprint.o
                                                  ../obj/Src/trancomm.o
                                                  ../obj/Src/posparams.o
                                                  ../obj/Src/PosLib.o
                                                  ../obj/Src/posfiles.o
fileExist                                         ../SDK/lib/libseos.a(dll.o)
                                                  ../obj/Src/emvtranproc.o
                                                  ../obj/Src/LocalFtp.o
                                                  ../obj/Src/m1_tranproc.o
                                                  ../obj/Src/tranproc.o
                                                  ../obj/Src/trancomm.o
                                                  ../obj/Src/main.o
fileExistExt                                      ../SDK/lib/libseos.a(dll.o)
fileFreeSpace                                     ../SDK/lib/libseos.a(dll.o)
fileGetInfo                                       ../SDK/lib/libseos.a(dll.o)
                                                  ../SDK/lib/libcrypto.a(open.o)
                                                  ../obj/Src/posparams.o
fileOpen                                          ../SDK/lib/libseos.a(dll.o)
                                                  ../SDK/lib/libcrypto.a(open.o)
                                                  ../obj/Src/qpbocProc.o
                                                  ../obj/Src/LocalFtp.o
                                                  ../obj/Src/m1_tranproc.o
                                                  ../obj/Src/showDebug/showDebug.o
                                                  ../obj/Src/tranproc.o
                                                  ../obj/Src/tranprint.o
                                                  ../obj/Src/trancomm.o
                                                  ../obj/Src/posparams.o
                                                  ../obj/Src/PosLib.o
                                                  ../obj/Src/posfiles.o
fileOpenExt                                       ../SDK/lib/libseos.a(dll.o)
                                                  ../SDK/lib/libcrypto.a(open.o)
                                                  ../obj/Src/PosLib.o
fileRead                                          ../SDK/lib/libseos.a(dll.o)
                                                  ../obj/Src/qpbocProc.o
                                                  ../obj/Src/LocalFtp.o
                                                  ../obj/Src/m1_tranproc.o
                                                  ../obj/Src/tranprint.o
                                                  ../obj/Src/trancomm.o
                                                  ../obj/Src/posparams.o
                                                  ../obj/Src/PosLib.o
                                                  ../obj/Src/posfiles.o
fileRemove                                        ../SDK/lib/libseos.a(dll.o)
                                                  ../SDK/lib/libcrypto.a(fopen.o)
                                                  ../obj/Src/qpbocProc.o
                                                  ../obj/Src/Menu.o
                                                  ../obj/Src/emvtranproc.o
                                                  ../obj/Src/m1_tranproc.o
                                                  ../obj/Src/tranproc.o
                                                  ../obj/Src/trancomm.o
                                                  ../obj/Src/main.o
                                                  ../obj/Src/appsetup.o
fileRemoveExt                                     ../SDK/lib/libseos.a(dll.o)
fileRename                                        ../SDK/lib/libseos.a(dll.o)
fileRenameExt                                     ../SDK/lib/libseos.a(dll.o)
fileSeek                                          ../SDK/lib/libseos.a(dll.o)
                                                  ../SDK/lib/libcrypto.a(fopen.o)
                                                  ../obj/Src/qpbocProc.o
                                                  ../obj/Src/LocalFtp.o
                                                  ../obj/Src/m1_tranproc.o
                                                  ../obj/Src/showDebug/showDebug.o
                                                  ../obj/Src/tranprint.o
                                                  ../obj/Src/PosLib.o
                                                  ../obj/Src/posfiles.o
fileSize                                          ../SDK/lib/libseos.a(dll.o)
                                                  ../obj/Src/qpbocProc.o
                                                  ../obj/Src/m1_tranproc.o
                                                  ../obj/Src/tranproc.o
                                                  ../obj/Src/tranprint.o
                                                  ../obj/Src/posfiles.o
                                                  ../obj/Src/main.o
                                                  ../obj/Src/ChkOption.o
fileSizeExt                                       ../SDK/lib/libseos.a(dll.o)
fileToApp                                         ../SDK/lib/libseos.a(dll.o)
fileToAppData                                     ../SDK/lib/libseos.a(dll.o)
fileToDSRM                                        ../SDK/lib/libseos.a(dll.o)
fileToFont                                        ../SDK/lib/libseos.a(dll.o)
fileToKernel                                      ../SDK/lib/libseos.a(dll.o)
fileToPubKey                                      ../SDK/lib/libseos.a(dll.o)
fileTruncate                                      ../SDK/lib/libseos.a(dll.o)
fileWrite                                         ../SDK/lib/libseos.a(dll.o)
                                                  ../SDK/lib/libcrypto.a(write.o)
                                                  ../obj/Src/qpbocProc.o
                                                  ../obj/Src/showDebug/showDebug.o
                                                  ../obj/Src/tranproc.o
                                                  ../obj/Src/trancomm.o
                                                  ../obj/Src/PosLib.o
                                                  ../obj/Src/posfiles.o
font_get_dot                                      ../SDK/lib/libseos.a(dll.o)
font_list_lib                                     ../SDK/lib/libseos.a(dll.o)
font_select                                       ../SDK/lib/libseos.a(dll.o)
font_set_trans_func                               ../SDK/lib/libseos.a(dll.o)
fputs_unlocked                                    /cygdrive/c/ArmToolchain/arm-linux-uclibc/bin/../../lib/libc.a(fputs_unlocked.os)
fputws                                            /cygdrive/c/ArmToolchain/arm-linux-uclibc/bin/../../lib/libc.a(fputws.os)
fputws_unlocked                                   /cygdrive/c/ArmToolchain/arm-linux-uclibc/bin/../../lib/libc.a(fputws_unlocked.os)
fseek                                             /cygdrive/c/ArmToolchain/arm-linux-uclibc/bin/../../lib/libc.a(fseeko.os)
fseeko                                            /cygdrive/c/ArmToolchain/arm-linux-uclibc/bin/../../lib/libc.a(fseeko.os)
fseeko64                                          /cygdrive/c/ArmToolchain/arm-linux-uclibc/bin/../../lib/libc.a(fseeko64.os)
ftpDemo                                           ../obj/Src/LocalFtp.o
ftp_cmd                                           ../SDK/lib/libftp.a(ftp.o)
ftp_debug                                         ../obj/Src/LocalFtp.o
                                                  ../SDK/lib/libftp.a(ftp.o)
ftp_get                                           ../SDK/lib/libftp.a(ftp.o)
                                                  ../obj/Src/LocalFtp.o
ftp_get_data                                      ../obj/Src/LocalFtp.o
ftp_login                                         ../SDK/lib/libftp.a(ftp.o)
                                                  ../obj/Src/LocalFtp.o
ftp_logout                                        ../SDK/lib/libftp.a(ftp.o)
                                                  ../obj/Src/LocalFtp.o
ftp_ls                                            ../SDK/lib/libftp.a(ftp.o)
ftp_put                                           ../SDK/lib/libftp.a(ftp.o)
                                                  ../obj/Src/LocalFtp.o
ftp_size                                          ../SDK/lib/libftp.a(ftp.o)
                                                  ../obj/Src/LocalFtp.o
ftp_store_data                                    ../obj/Src/LocalFtp.o
fwrite_unlocked                                   /cygdrive/c/ArmToolchain/arm-linux-uclibc/bin/../../lib/libc.a(fwrite_unlocked.os)
g_InputPinLogoBmp                                 ../obj/Src/emvtranproc.o
getpid                                            /cygdrive/c/ArmToolchain/arm-linux-uclibc/bin/../../lib/libc.a(getpid.os)
glData0                                           ../obj/Src/st8583.o
                                                  ../obj/Src/trancomm.o
glMsg0                                            ../obj/Src/st8583.o
                                                  ../obj/Src/trancomm.o
glRecvPack                                        ../obj/Src/st8583.o
                                                  ../obj/Src/otherTxn.o
                                                  ../obj/Src/Menu.o
                                                  ../obj/Src/emvtranproc.o
                                                  ../obj/Src/tranproc.o
                                                  ../obj/Src/trancomm.o
                                                  ../obj/Src/pospin.o
glSendPack                                        ../obj/Src/st8583.o
                                                  ../obj/Src/qpbocProc.o
                                                  ../obj/Src/otherTxn.o
                                                  ../obj/Src/Menu.o
                                                  ../obj/Src/emvtranproc.o
                                                  ../obj/Src/tranproc.o
                                                  ../obj/Src/trancomm.o
glTermAidList                                     ../obj/Src/globalvar.o
                                                  ../obj/Src/qpbocProc.o
                                                  ../obj/Src/Menu.o
                                                  ../obj/Src/posfiles.o
                                                  ../obj/Src/otherfunc.o
glTermAidNum                                      ../obj/Src/globalvar.o
                                                  ../obj/Src/posfiles.o
                                                  ../obj/Src/otherfunc.o
gl_FirstRunSelApp                                 ../obj/Src/emvtranproc.o
                                                  ../obj/Src/Menu.o
                                                  ../obj/Src/otherfunc.o
gl_SupCN                                          ../obj/Src/emvtranproc.o
gl_SupEn                                          ../obj/Src/emvtranproc.o
                                                  ../obj/Src/otherfunc.o
gl_TmSupLang                                      ../obj/Src/emvtranproc.o
gl_core_init                                      ../SDK/lib/libemv.a(emv_core_func.o)
glbEpp                                            ../obj/Src/globalvar.o
gstCurCommCfg                                     ../obj/Src/globalvar.o
                                                  ../obj/Src/trancomm.o
                                                  ../obj/Src/wireless.o
gstIccPrintData                                   ../obj/Src/emvtranproc.o
                                                  ../obj/Src/Menu.o
                                                  ../obj/Src/tranprint.o
gstPosCapability                                  ../obj/Src/globalvar.o
                                                  ../obj/Src/m1_tranproc.o
                                                  ../obj/Src/posfiles.o
                                                  ../obj/Src/main.o
                                                  ../obj/Src/Commlib.o
                                                  ../obj/Src/appsetup.o
                                                  ../obj/Src/wireless.o
gstYktEnrichLog                                   ../obj/Src/globalvar.o
                                                  ../obj/Src/m1_tranproc.o
                                                  ../obj/Src/tranprint.o
                                                  ../obj/Src/posfiles.o
                                                  ../obj/Src/appsetup.o
gszParamFileName                                  ../obj/Src/globalvar.o
                                                  ../obj/Src/posparams.o
                                                  ../obj/Src/main.o
iPack8583                                         ../obj/Src/pack8583.o
                                                  ../obj/Src/trancomm.o
iPsam_fd                                          ../obj/Src/globalvar.o
                                                  ../obj/Src/Menu.o
                                                  ../obj/Src/getcard.o
iUnPack8583                                       ../obj/Src/pack8583.o
                                                  ../obj/Src/trancomm.o
iccDetect                                         ../SDK/lib/libseos.a(dll.o)
                                                  ../obj/Src/m1_tranproc.o
                                                  ../obj/Src/getcard.o
iccExchangeAPDU                                   ../SDK/lib/libseos.a(dll.o)
                                                  ../obj/Src/Menu.o
                                                  ../obj/Src/m1_tranproc.o
                                                  ../obj/Src/New8110_ICC.o
                                                  ../obj/Src/getcard.o
iccPowerDown                                      ../SDK/lib/libseos.a(dll.o)
                                                  ../obj/Src/m1_tranproc.o
                                                  ../obj/Src/New8110_ICC.o
                                                  ../obj/Src/getcard.o
iccPowerUp                                        ../SDK/lib/libseos.a(dll.o)
                                                  ../obj/Src/Menu.o
                                                  ../obj/Src/m1_tranproc.o
                                                  ../obj/Src/otherfunc.o
                                                  ../obj/Src/New8110_ICC.o
                                                  ../obj/Src/getcard.o
iccSetPara                                        ../SDK/lib/libseos.a(dll.o)
                                                  ../obj/Src/Menu.o
                                                  ../obj/Src/m1_tranproc.o
                                                  ../obj/Src/otherfunc.o
                                                  ../obj/Src/New8110_ICC.o
                                                  ../obj/Src/getcard.o
iccWarmReset                                      ../SDK/lib/libseos.a(dll.o)
icc_fd                                            ../obj/Src/globalvar.o
                                                  ../obj/Src/Menu.o
                                                  ../obj/Src/emvtranproc.o
                                                  ../obj/Src/otherfunc.o
                                                  ../obj/Src/getcard.o
imif_fd                                           ../obj/Src/globalvar.o
                                                  ../obj/Src/qpbocProc.o
                                                  ../obj/Src/Menu.o
                                                  ../obj/Src/otherfunc.o
                                                  ../obj/Src/getcard.o
inet_addr                                         /cygdrive/c/ArmToolchain/arm-linux-uclibc/bin/../../lib/libc.a(inet_makeaddr.os)
                                                  ../SDK/lib/libftp.a(ftp.o)
inet_aton                                         /cygdrive/c/ArmToolchain/arm-linux-uclibc/bin/../../lib/libc.a(inet_aton.os)
inet_ntop                                         /cygdrive/c/ArmToolchain/arm-linux-uclibc/bin/../../lib/libc.a(ntop.os)
                                                  ../obj/Src/wireless.o
inet_pton                                         /cygdrive/c/ArmToolchain/arm-linux-uclibc/bin/../../lib/libc.a(ntop.os)
                                                  ../obj/Src/wireless.o
init_dial_statics                                 ../obj/Src/otherfunc.o
                                                  ../obj/Src/tranproc.o
ioctl                                             /cygdrive/c/ArmToolchain/arm-linux-uclibc/bin/../../lib/libc.a(ioctl.os)
isatty                                            /cygdrive/c/ArmToolchain/arm-linux-uclibc/bin/../../lib/libc.a(isatty.os)
kbFlush                                           ../SDK/lib/libseos.a(dll.o)
                                                  ../obj/Src/emvtranproc.o
                                                  ../obj/Src/LocalFtp.o
                                                  ../obj/Src/m1_tranproc.o
                                                  ../obj/Src/tranproc.o
                                                  ../obj/Src/posparams.o
                                                  ../obj/Src/PosLib.o
                                                  ../obj/Src/posfiles.o
                                                  ../obj/Src/otherfunc.o
                                                  ../obj/Src/opermanage.o
                                                  ../obj/Src/NewPosApi.o
                                                  ../obj/Src/main.o
                                                  ../obj/Src/getcard.o
                                                  ../obj/Src/Display.o
                                                  ../obj/Src/Commlib.o
                                                  ../obj/Src/appsetup.o
                                                  ../obj/Src/wireless.o
kbGetHZ                                           ../SDK/lib/libseos.a(dll.o)
kbGetKey                                          ../SDK/lib/libseos.a(dll.o)
                                                  ../obj/Src/qpbocProc.o
                                                  ../obj/Src/otherTxn.o
                                                  ../obj/Src/Menu.o
                                                  ../obj/Src/emvtranproc.o
                                                  ../obj/Src/LocalFtp.o
                                                  ../obj/Src/m1_tranproc.o
                                                  ../obj/Src/showDebug/showDebug.o
                                                  ../obj/Src/m1_card/m1_card_proc.o
                                                  ../obj/Src/tranproc.o
                                                  ../obj/Src/tranprint.o
                                                  ../obj/Src/trancomm.o
                                                  ../obj/Src/posparams.o
                                                  ../obj/Src/PosLib.o
                                                  ../obj/Src/otherfunc.o
                                                  ../obj/Src/opermanage.o
                                                  ../obj/Src/NewPosApi.o
                                                  ../obj/Src/main.o
                                                  ../obj/Src/getcard.o
                                                  ../obj/Src/devicetest.o
                                                  ../obj/Src/Commlib.o
                                                  ../obj/Src/appsetup.o
                                                  ../obj/Src/wireless.o
kbGetKeyMs                                        ../SDK/lib/libseos.a(dll.o)
                                                  ../obj/Src/otherTxn.o
                                                  ../obj/Src/Menu.o
                                                  ../obj/Src/emvtranproc.o
                                                  ../obj/Src/m1_tranproc.o
                                                  ../obj/Src/tranproc.o
                                                  ../obj/Src/tranprint.o
                                                  ../obj/Src/trancomm.o
                                                  ../obj/Src/pospin.o
                                                  ../obj/Src/PosLib.o
                                                  ../obj/Src/posfiles.o
                                                  ../obj/Src/otherfunc.o
                                                  ../obj/Src/opermanage.o
                                                  ../obj/Src/NewPosApi.o
                                                  ../obj/Src/main.o
                                                  ../obj/Src/getcard.o
                                                  ../obj/Src/devicetest.o
                                                  ../obj/Src/Commlib.o
                                                  ../obj/Src/appsetup.o
                                                  ../obj/Src/wireless.o
kbGetString                                       ../SDK/lib/libseos.a(dll.o)
                                                  ../obj/Src/otherTxn.o
                                                  ../obj/Src/emvtranproc.o
                                                  ../obj/Src/m1_tranproc.o
                                                  ../obj/Src/tranproc.o
                                                  ../obj/Src/posfiles.o
                                                  ../obj/Src/otherfunc.o
                                                  ../obj/Src/opermanage.o
                                                  ../obj/Src/main.o
                                                  ../obj/Src/getcard.o
                                                  ../obj/Src/appsetup.o
                                                  ../obj/Src/wireless.o
kbLight                                           ../SDK/lib/libseos.a(dll.o)
kbSetLightTime                                    ../SDK/lib/libseos.a(dll.o)
kbSetSlipFW                                       ../SDK/lib/libseos.a(dll.o)
                                                  ../obj/Src/devicetest.o
                                                  ../obj/Src/appsetup.o
kbSound                                           ../SDK/lib/libseos.a(dll.o)
kbhit                                             ../SDK/lib/libseos.a(dll.o)
                                                  ../obj/Src/LocalFtp.o
                                                  ../obj/Src/m1_tranproc.o
                                                  ../obj/Src/PosLib.o
                                                  ../obj/Src/otherfunc.o
                                                  ../obj/Src/NewPosApi.o
                                                  ../obj/Src/getcard.o
                                                  ../obj/Src/devicetest.o
kill                                              /cygdrive/c/ArmToolchain/arm-linux-uclibc/bin/../../lib/libc.a(kill.os)
lcdClrLine                                        ../SDK/lib/libseos.a(dll.o)
                                                  ../obj/Src/qpbocProc.o
                                                  ../obj/Src/otherTxn.o
                                                  ../obj/Src/Menu.o
                                                  ../obj/Src/emvtranproc.o
                                                  ../obj/Src/LocalFtp.o
                                                  ../obj/Src/m1_tranproc.o
                                                  ../obj/Src/m1_card/m1_card_proc.o
                                                  ../obj/Src/tranproc.o
                                                  ../obj/Src/tranprint.o
                                                  ../obj/Src/trancomm.o
                                                  ../obj/Src/pospin.o
                                                  ../obj/Src/posparams.o
                                                  ../obj/Src/PosLib.o
                                                  ../obj/Src/posfiles.o
                                                  ../obj/Src/otherfunc.o
                                                  ../obj/Src/opermanage.o
                                                  ../obj/Src/NewPosApi.o
                                                  ../obj/Src/main.o
                                                  ../obj/Src/getcard.o
                                                  ../obj/Src/Display.o
                                                  ../obj/Src/devicetest.o
                                                  ../obj/Src/Commlib.o
                                                  ../obj/Src/appsetup.o
                                                  ../obj/Src/wireless.o
lcdCls                                            ../SDK/lib/libseos.a(dll.o)
                                                  ../obj/Src/qpbocProc.o
                                                  ../obj/Src/otherTxn.o
                                                  ../obj/Src/Menu.o
                                                  ../obj/Src/emvtranproc.o
                                                  ../obj/Src/LocalFtp.o
                                                  ../obj/Src/m1_tranproc.o
                                                  ../obj/Src/showDebug/showDebug.o
                                                  ../obj/Src/tranproc.o
                                                  ../obj/Src/tranprint.o
                                                  ../obj/Src/PosLib.o
                                                  ../obj/Src/posfiles.o
                                                  ../obj/Src/otherfunc.o
                                                  ../obj/Src/opermanage.o
                                                  ../obj/Src/NewPosApi.o
                                                  ../obj/Src/main.o
                                                  ../obj/Src/getcard.o
                                                  ../obj/Src/devicetest.o
                                                  ../obj/Src/appsetup.o
                                                  ../obj/Src/wireless.o
lcdDisplay                                        ../SDK/lib/libseos.a(dll.o)
                                                  ../obj/Src/qpbocProc.o
                                                  ../obj/Src/otherTxn.o
                                                  ../obj/Src/Menu.o
                                                  ../obj/Src/emvtranproc.o
                                                  ../obj/Src/LocalFtp.o
                                                  ../obj/Src/m1_tranproc.o
                                                  ../obj/Src/m1_card/m1_card_proc.o
                                                  ../obj/Src/tranproc.o
                                                  ../obj/Src/tranprint.o
                                                  ../obj/Src/trancomm.o
                                                  ../obj/Src/pospin.o
                                                  ../obj/Src/PosLib.o
                                                  ../obj/Src/posfiles.o
                                                  ../obj/Src/otherfunc.o
                                                  ../obj/Src/opermanage.o
                                                  ../obj/Src/NewPosApi.o
                                                  ../obj/Src/main.o
                                                  ../obj/Src/getcard.o
                                                  ../obj/Src/Display.o
                                                  ../obj/Src/devicetest.o
                                                  ../obj/Src/Commlib.o
                                                  ../obj/Src/appsetup.o
                                                  ../obj/Src/wireless.o
lcdDrLogo                                         ../SDK/lib/libseos.a(dll.o)
lcdFlip                                           ../obj/Src/globalvar.o
                                                  ../obj/Src/qpbocProc.o
                                                  ../obj/Src/otherTxn.o
                                                  ../obj/Src/Menu.o
                                                  ../obj/Src/emvtranproc.o
                                                  ../obj/Src/m1_tranproc.o
                                                  ../obj/Src/tranproc.o
                                                  ../obj/Src/tranprint.o
                                                  ../obj/Src/trancomm.o
                                                  ../obj/Src/pospin.o
                                                  ../obj/Src/posparams.o
                                                  ../obj/Src/PosLib.o
                                                  ../obj/Src/posfiles.o
                                                  ../obj/Src/otherfunc.o
                                                  ../obj/Src/opermanage.o
                                                  ../obj/Src/NewPosApi.o
                                                  ../obj/Src/main.o
                                                  ../obj/Src/getcard.o
                                                  ../obj/Src/Display.o
                                                  ../obj/Src/devicetest.o
                                                  ../obj/Src/Commlib.o
                                                  ../obj/Src/appsetup.o
                                                  ../obj/Src/wireless.o
lcdGetCurFont                                     ../SDK/lib/libseos.a(dll.o)
lcdGoto                                           ../SDK/lib/libseos.a(dll.o)
                                                  ../obj/Src/otherTxn.o
                                                  ../obj/Src/emvtranproc.o
                                                  ../obj/Src/m1_tranproc.o
                                                  ../obj/Src/tranproc.o
                                                  ../obj/Src/pospin.o
                                                  ../obj/Src/posfiles.o
                                                  ../obj/Src/otherfunc.o
                                                  ../obj/Src/opermanage.o
                                                  ../obj/Src/main.o
                                                  ../obj/Src/getcard.o
                                                  ../obj/Src/appsetup.o
                                                  ../obj/Src/wireless.o
lcdLight                                          ../SDK/lib/libseos.a(dll.o)
                                                  ../obj/Src/devicetest.o
lcdPrintf                                         ../SDK/lib/libseos.a(dll.o)
                                                  ../obj/Src/m1_tranproc.o
                                                  ../obj/Src/showDebug/showDebug.o
                                                  ../obj/Src/opermanage.o
lcdRestore                                        ../SDK/lib/libseos.a(dll.o)
lcdSetFont                                        ../SDK/lib/libseos.a(dll.o)
lcdSetIcon                                        ../SDK/lib/libseos.a(dll.o)
                                                  ../obj/Src/emvtranproc.o
                                                  ../obj/Src/PosLib.o
                                                  ../obj/Src/opermanage.o
                                                  ../obj/Src/NewPosApi.o
                                                  ../obj/Src/devicetest.o
                                                  ../obj/Src/Commlib.o
lcdSetInverse                                     ../SDK/lib/libseos.a(dll.o)
lcdStipple                                        ../SDK/lib/libseos.a(dll.o)
                                                  ../obj/Src/Display.o
                                                  ../obj/Src/devicetest.o
lcdStore                                          ../SDK/lib/libseos.a(dll.o)
lcdWdisplay                                       ../SDK/lib/libseos.a(dll.o)
lcdWprintf                                        ../SDK/lib/libseos.a(dll.o)
logo                                              ../obj/Src/main.o
lseek64                                           /cygdrive/c/ArmToolchain/arm-linux-uclibc/bin/../../lib/libc.a(llseek.os)
magClose                                          ../SDK/lib/libseos.a(dll.o)
                                                  ../obj/Src/otherfunc.o
                                                  ../obj/Src/getcard.o
                                                  ../obj/Src/devicetest.o
magOpen                                           ../SDK/lib/libseos.a(dll.o)
                                                  ../obj/Src/otherfunc.o
                                                  ../obj/Src/getcard.o
                                                  ../obj/Src/devicetest.o
magRead                                           ../SDK/lib/libseos.a(dll.o)
                                                  ../obj/Src/getcard.o
                                                  ../obj/Src/devicetest.o
magReset                                          ../SDK/lib/libseos.a(dll.o)
                                                  ../obj/Src/otherfunc.o
                                                  ../obj/Src/getcard.o
magSwiped                                         ../SDK/lib/libseos.a(dll.o)
                                                  ../obj/Src/getcard.o
                                                  ../obj/Src/devicetest.o
main                                              ../obj/Src/main.o
                                                  ../obj/Src/init.o
mbsnrtowcs                                        /cygdrive/c/ArmToolchain/arm-linux-uclibc/bin/../../lib/libc.a(mbsnrtowcs.os)
mbsrtowcs                                         /cygdrive/c/ArmToolchain/arm-linux-uclibc/bin/../../lib/libc.a(mbsrtowcs.os)
md5                                               ../SDK/lib/libseos.a(dll.o)
md5_final                                         ../SDK/lib/libseos.a(dll.o)
md5_init                                          ../SDK/lib/libseos.a(dll.o)
md5_update                                        ../SDK/lib/libseos.a(dll.o)
memchr                                            /cygdrive/c/ArmToolchain/arm-linux-uclibc/bin/../../lib/libc.a(memchr.os)
                                                  ../SDK/lib/libcrypto.a(mem_clr.o)
                                                  ../obj/Src/posparams.o
memcmp                                            /cygdrive/c/ArmToolchain/arm-linux-uclibc/bin/../../lib/libc.a(memcmp.os)
                                                  ../SDK/lib/libemv.a(qpboc_funcs.o)
                                                  ../SDK/lib/libemv.a(qpbocapi.o)
                                                  ../SDK/lib/libemv.a(emvtlv.o)
                                                  ../SDK/lib/libemv.a(emvtermrisk.o)
                                                  ../SDK/lib/libemv.a(emvtac.o)
                                                  ../SDK/lib/libemv.a(emvprocrest.o)
                                                  ../SDK/lib/libemv.a(emvpinverify.o)
                                                  ../SDK/lib/libemv.a(emvoda.o)
                                                  ../SDK/lib/libemv.a(emvdte.o)
                                                  ../SDK/lib/libemv.a(emvdol.o)
                                                  ../SDK/lib/libemv.a(emvddflist.o)
                                                  ../SDK/lib/libemv.a(emvcvm.o)
                                                  ../SDK/lib/libemv.a(emvconfigure.o)
                                                  ../SDK/lib/libemv.a(emvcomplete.o)
                                                  ../SDK/lib/libemv.a(emvcapk.o)
                                                  ../SDK/lib/libemv.a(emvcandapp.o)
                                                  ../SDK/lib/libemv.a(emvappselect.o)
                                                  ../SDK/lib/libemv.a(emvaidlist.o)
                                                  ../obj/Src/qpbocProc.o
                                                  ../obj/Src/otherTxn.o
                                                  ../obj/Src/Menu.o
                                                  ../obj/Src/emvtranproc.o
                                                  ../obj/Src/m1_tranproc.o
                                                  ../obj/Src/tranproc.o
                                                  ../obj/Src/tranprint.o
                                                  ../obj/Src/trancomm.o
                                                  ../obj/Src/pospin.o
                                                  ../obj/Src/posparams.o
                                                  ../obj/Src/posfiles.o
                                                  ../obj/Src/otherfunc.o
                                                  ../obj/Src/opermanage.o
                                                  ../obj/Src/NewPosApi.o
                                                  ../obj/Src/main.o
                                                  ../obj/Src/getcard.o
                                                  ../obj/Src/Commlib.o
                                                  ../obj/Src/ChkOption.o
                                                  ../obj/Src/appsetup.o
memcpy                                            /cygdrive/c/ArmToolchain/arm-linux-uclibc/bin/../../lib/libc.a(memcpy.os)
                                                  /cygdrive/c/ArmToolchain/arm-linux-uclibc/bin/../../lib/libc.a(ntop.os)
                                                  ../SDK/lib/libftp.a(ftp.o)
                                                  ../SDK/lib/liballoc.a(memmgr.o)
                                                  ../SDK/lib/libemv.a(qpboc_funcs.o)
                                                  ../SDK/lib/libemv.a(EmvSHA1.o)
                                                  ../SDK/lib/libemv.a(EmvRsa.o)
                                                  ../SDK/lib/libemv.a(qpbocapi.o)
                                                  ../SDK/lib/libemv.a(emvtlv.o)
                                                  ../SDK/lib/libemv.a(emvtac.o)
                                                  ../SDK/lib/libemv.a(emvpubfunc.o)
                                                  ../SDK/lib/libemv.a(emvpinverify.o)
                                                  ../SDK/lib/libemv.a(emvoda.o)
                                                  ../SDK/lib/libemv.a(emvicc.o)
                                                  ../SDK/lib/libemv.a(emvdte.o)
                                                  ../SDK/lib/libemv.a(emvdol.o)
                                                  ../SDK/lib/libemv.a(emvddflist.o)
                                                  ../SDK/lib/libemv.a(emvcomplete.o)
                                                  ../SDK/lib/libemv.a(emvcapk.o)
                                                  ../SDK/lib/libemv.a(emvcandapp.o)
                                                  ../SDK/lib/libemv.a(emvappselect.o)
                                                  ../SDK/lib/libemv.a(emvaidlist.o)
                                                  ../SDK/lib/libemv.a(emv_core_func.o)
                                                  ../SDK/lib/libseos.a(dll.o)
                                                  ../obj/Src/qpbocProc.o
                                                  ../obj/Src/pack8583.o
                                                  ../obj/Src/otherTxn.o
                                                  ../obj/Src/Menu.o
                                                  ../obj/Src/emvtranproc.o
                                                  ../obj/Src/m1_tranproc.o
                                                  ../obj/Src/showDebug/showDebug.o
                                                  ../obj/Src/tranproc.o
                                                  ../obj/Src/tranprint.o
                                                  ../obj/Src/trancomm.o
                                                  ../obj/Src/pospin.o
                                                  ../obj/Src/posparams.o
                                                  ../obj/Src/PosLib.o
                                                  ../obj/Src/posfiles.o
                                                  ../obj/Src/otherfunc.o
                                                  ../obj/Src/opermanage.o
                                                  ../obj/Src/NewPosApi.o
                                                  ../obj/Src/New8110_ICC.o
                                                  ../obj/Src/MathLib.o
                                                  ../obj/Src/main.o
                                                  ../obj/Src/getcard.o
                                                  ../obj/Src/devicetest.o
                                                  ../obj/Src/Commlib.o
                                                  ../obj/Src/appsetup.o
                                                  ../obj/Src/wireless.o
memmove                                           /cygdrive/c/ArmToolchain/arm-linux-uclibc/bin/../../lib/libc.a(memmove.os)
                                                  ../SDK/lib/libemv.a(emvodalist.o)
                                                  ../SDK/lib/libemv.a(emvdol.o)
                                                  ../SDK/lib/libemv.a(emvddflist.o)
                                                  ../SDK/lib/libemv.a(emvcandapp.o)
                                                  ../obj/Src/pack8583.o
                                                  ../obj/Src/m1_tranproc.o
                                                  ../obj/Src/trancomm.o
                                                  ../obj/Src/posparams.o
                                                  ../obj/Src/MathLib.o
mempcpy                                           /cygdrive/c/ArmToolchain/arm-linux-uclibc/bin/../../lib/libc.a(mempcpy.os)
memrchr                                           /cygdrive/c/ArmToolchain/arm-linux-uclibc/bin/../../lib/libc.a(memrchr.os)
memset                                            /cygdrive/c/ArmToolchain/arm-linux-uclibc/bin/../../lib/libc.a(memset.os)
                                                  /cygdrive/c/ArmToolchain/arm-linux-uclibc/bin/../../lib/libc.a(ntop.os)
                                                  ../SDK/lib/liballoc.a(memmgr.o)
                                                  ../SDK/lib/libcrypto.a(fopen.o)
                                                  ../SDK/lib/libemv.a(qpboc_funcs.o)
                                                  ../SDK/lib/libemv.a(EmvSHA1.o)
                                                  ../SDK/lib/libemv.a(EmvRsa.o)
                                                  ../SDK/lib/libemv.a(qpbocapi.o)
                                                  ../SDK/lib/libemv.a(emvtlv.o)
                                                  ../SDK/lib/libemv.a(emvtermrisk.o)
                                                  ../SDK/lib/libemv.a(emvtac.o)
                                                  ../SDK/lib/libemv.a(emvreadappdata.o)
                                                  ../SDK/lib/libemv.a(emvpubfunc.o)
                                                  ../SDK/lib/libemv.a(emvpinverify.o)
                                                  ../SDK/lib/libemv.a(emvodalist.o)
                                                  ../SDK/lib/libemv.a(emvoda.o)
                                                  ../SDK/lib/libemv.a(emvicc.o)
                                                  ../SDK/lib/libemv.a(emvdte.o)
                                                  ../SDK/lib/libemv.a(emvdol.o)
                                                  ../SDK/lib/libemv.a(emvcvm.o)
                                                  ../SDK/lib/libemv.a(emvcomplete.o)
                                                  ../SDK/lib/libemv.a(emvcapk.o)
                                                  ../SDK/lib/libemv.a(emvcandapp.o)
                                                  ../SDK/lib/libemv.a(emvappselect.o)
                                                  ../SDK/lib/libemv.a(emvaidlist.o)
                                                  ../SDK/lib/libemv.a(emv_core_func.o)
                                                  ../SDK/lib/libseos.a(dll.o)
                                                  ../obj/Src/qpbocProc.o
                                                  ../obj/Src/pack8583.o
                                                  ../obj/Src/otherTxn.o
                                                  ../obj/Src/Menu.o
                                                  ../obj/Src/emvtranproc.o
                                                  ../obj/Src/LocalFtp.o
                                                  ../obj/Src/m1_tranproc.o
                                                  ../obj/Src/showDebug/showDebug.o
                                                  ../obj/Src/m1_card/m1_card_proc.o
                                                  ../obj/Src/tranproc.o
                                                  ../obj/Src/tranprint.o
                                                  ../obj/Src/trancomm.o
                                                  ../obj/Src/pospin.o
                                                  ../obj/Src/posparams.o
                                                  ../obj/Src/PosLib.o
                                                  ../obj/Src/posfiles.o
                                                  ../obj/Src/otherfunc.o
                                                  ../obj/Src/New8110_ICC.o
                                                  ../obj/Src/MathLib.o
                                                  ../obj/Src/main.o
                                                  ../obj/Src/getcard.o
                                                  ../obj/Src/devicetest.o
                                                  ../obj/Src/Commlib.o
                                                  ../obj/Src/ChkOption.o
                                                  ../obj/Src/appsetup.o
                                                  ../obj/Src/wireless.o
mifAnticollion                                    ../SDK/lib/libseos.a(dll.o)
mifAttriB                                         ../SDK/lib/libseos.a(dll.o)
mifAuthByE2                                       ../SDK/lib/libseos.a(dll.o)
mifAuthByKey                                      ../SDK/lib/libseos.a(dll.o)
                                                  ../obj/Src/m1_tranproc.o
                                                  ../obj/Src/m1_card/m1_card_proc.o
mifCheckOnlyOneCard                               ../SDK/lib/libseos.a(dll.o)
                                                  ../obj/Src/m1_tranproc.o
                                                  ../obj/Src/m1_card/m1_card_proc.o
mifClose                                          ../SDK/lib/libseos.a(dll.o)
                                                  ../obj/Src/m1_tranproc.o
                                                  ../obj/Src/m1_card/m1_card_proc.o
mifDecrement                                      ../SDK/lib/libseos.a(dll.o)
                                                  ../obj/Src/m1_card/m1_card_proc.o
mifExchangeAPDU                                   ../SDK/lib/libseos.a(dll.o)
mifExchangeData                                   ../SDK/lib/libseos.a(dll.o)
mifFeliCaExchange                                 ../SDK/lib/libseos.a(dll.o)
mifGetTimeOut                                     ../SDK/lib/libseos.a(dll.o)
                                                  ../obj/Src/m1_tranproc.o
mifHaltA                                          ../SDK/lib/libseos.a(dll.o)
mifHaltB                                          ../SDK/lib/libseos.a(dll.o)
mifIncrement                                      ../SDK/lib/libseos.a(dll.o)
                                                  ../obj/Src/m1_card/m1_card_proc.o
mifLEDControl                                     ../SDK/lib/libseos.a(dll.o)
mifOpen                                           ../SDK/lib/libseos.a(dll.o)
                                                  ../obj/Src/m1_tranproc.o
                                                  ../obj/Src/m1_card/m1_card_proc.o
mifPLAuthInAct                                    ../SDK/lib/libseos.a(dll.o)
mifPLAuthInPro                                    ../SDK/lib/libseos.a(dll.o)
mifPLCommitPerso                                  ../SDK/lib/libseos.a(dll.o)
mifPLDecreTrans                                   ../SDK/lib/libseos.a(dll.o)
mifPLDecrement                                    ../SDK/lib/libseos.a(dll.o)
mifPLIncreTrans                                   ../SDK/lib/libseos.a(dll.o)
mifPLIncrement                                    ../SDK/lib/libseos.a(dll.o)
mifPLMultiReadBlock                               ../SDK/lib/libseos.a(dll.o)
mifPLMultiWriteBlock                              ../SDK/lib/libseos.a(dll.o)
mifPLReadBlock                                    ../SDK/lib/libseos.a(dll.o)
mifPLRestore                                      ../SDK/lib/libseos.a(dll.o)
mifPLSetValue                                     ../SDK/lib/libseos.a(dll.o)
mifPLTransfer                                     ../SDK/lib/libseos.a(dll.o)
mifPLWriteBlock                                   ../SDK/lib/libseos.a(dll.o)
mifPLWritePerso                                   ../SDK/lib/libseos.a(dll.o)
mifPPPS                                           ../SDK/lib/libseos.a(dll.o)
mifPowerUpCard                                    ../SDK/lib/libseos.a(dll.o)
mifProcess                                        ../SDK/lib/libseos.a(dll.o)
mifRATS                                           ../SDK/lib/libseos.a(dll.o)
mifReadBlock                                      ../SDK/lib/libseos.a(dll.o)
                                                  ../obj/Src/m1_card/m1_card_proc.o
mifReadE2                                         ../SDK/lib/libseos.a(dll.o)
mifReadULData                                     ../SDK/lib/libseos.a(dll.o)
mifReqA                                           ../SDK/lib/libseos.a(dll.o)
mifReqB                                           ../SDK/lib/libseos.a(dll.o)
mifResetRF                                        ../SDK/lib/libseos.a(dll.o)
                                                  ../obj/Src/m1_tranproc.o
                                                  ../obj/Src/m1_card/m1_card_proc.o
mifRestore                                        ../SDK/lib/libseos.a(dll.o)
                                                  ../obj/Src/m1_tranproc.o
mifSelect                                         ../SDK/lib/libseos.a(dll.o)
mifSelectMifType                                  ../SDK/lib/libseos.a(dll.o)
mifSetTimeOut                                     ../SDK/lib/libseos.a(dll.o)
                                                  ../obj/Src/m1_tranproc.o
mifSetValue                                       ../SDK/lib/libseos.a(dll.o)
mifSlotMarker                                     ../SDK/lib/libseos.a(dll.o)
mifTransfer                                       ../SDK/lib/libseos.a(dll.o)
                                                  ../obj/Src/m1_tranproc.o
                                                  ../obj/Src/m1_card/m1_card_proc.o
mifWriteBlock                                     ../SDK/lib/libseos.a(dll.o)
                                                  ../obj/Src/m1_card/m1_card_proc.o
mifWriteE2                                        ../SDK/lib/libseos.a(dll.o)
mifWriteKey                                       ../SDK/lib/libseos.a(dll.o)
mifWriteULData                                    ../SDK/lib/libseos.a(dll.o)
mifWriteULData16                                  ../SDK/lib/libseos.a(dll.o)
mifWupA                                           ../SDK/lib/libseos.a(dll.o)
mifWupB                                           ../SDK/lib/libseos.a(dll.o)
mif_close                                         ../SDK/lib/libseos.a(dll.o)
                                                  ../obj/Src/New8110_ICC.o
mif_get_response                                  ../SDK/lib/libseos.a(dll.o)
mif_get_status                                    ../SDK/lib/libseos.a(dll.o)
mif_ioctl                                         ../SDK/lib/libseos.a(dll.o)
mif_open                                          ../SDK/lib/libseos.a(dll.o)
                                                  ../obj/Src/New8110_ICC.o
mif_read_register                                 ../SDK/lib/libseos.a(dll.o)
mif_send_command                                  ../SDK/lib/libseos.a(dll.o)
mif_set_status                                    ../SDK/lib/libseos.a(dll.o)
mif_write_register                                ../SDK/lib/libseos.a(dll.o)
modem_check_extension                             ../SDK/lib/libseos.a(dll.o)
modem_close                                       ../SDK/lib/libseos.a(dll.o)
                                                  ../obj/Src/Commlib.o
modem_dialing                                     ../SDK/lib/libseos.a(dll.o)
                                                  ../obj/Src/Commlib.o
modem_enter_auto_answer                           ../SDK/lib/libseos.a(dll.o)
modem_exec_at_command                             ../SDK/lib/libseos.a(dll.o)
modem_exit_auto_answer                            ../SDK/lib/libseos.a(dll.o)
modem_get_dial_parms                              ../SDK/lib/libseos.a(dll.o)
                                                  ../obj/Src/Commlib.o
modem_get_last_errno                              ../SDK/lib/libseos.a(dll.o)
                                                  ../obj/Src/Commlib.o
modem_get_sdlc_parms                              ../SDK/lib/libseos.a(dll.o)
modem_get_status                                  ../SDK/lib/libseos.a(dll.o)
                                                  ../obj/Src/Commlib.o
modem_hangup                                      ../SDK/lib/libseos.a(dll.o)
                                                  ../obj/Src/Commlib.o
modem_open                                        ../SDK/lib/libseos.a(dll.o)
                                                  ../obj/Src/Commlib.o
modem_read                                        ../SDK/lib/libseos.a(dll.o)
modem_read_timeout                                ../SDK/lib/libseos.a(dll.o)
                                                  ../obj/Src/Commlib.o
modem_set_dial_parms                              ../SDK/lib/libseos.a(dll.o)
                                                  ../obj/Src/Commlib.o
modem_set_sdlc_parms                              ../SDK/lib/libseos.a(dll.o)
modem_wait_until_sent                             ../SDK/lib/libseos.a(dll.o)
                                                  ../obj/Src/Commlib.o
modem_write                                       ../SDK/lib/libseos.a(dll.o)
modem_write_timeout                               ../SDK/lib/libseos.a(dll.o)
                                                  ../obj/Src/Commlib.o
monthday                                          ../obj/Src/otherfunc.o
myParams                                          ../obj/Src/main.o
operStrc                                          ../obj/Src/globalvar.o
                                                  ../obj/Src/tranproc.o
                                                  ../obj/Src/posfiles.o
                                                  ../obj/Src/opermanage.o
                                                  ../obj/Src/main.o
pFunc                                             ../SDK/lib/libseos.a(dll.o)
paraReadData                                      ../SDK/lib/libseos.a(dll.o)
paraWriteData                                     ../SDK/lib/libseos.a(dll.o)
portCheckRecvBuf                                  ../SDK/lib/libseos.a(dll.o)
                                                  ../SDK/lib/libcrypto.a(console.o)
                                                  ../obj/Src/Rs232lib.o
                                                  ../obj/Src/Commlib.o
portCheckSendBuf                                  ../SDK/lib/libseos.a(dll.o)
                                                  ../obj/Src/Rs232lib.o
portClose                                         ../SDK/lib/libseos.a(dll.o)
                                                  ../SDK/lib/libcrypto.a(console.o)
                                                  ../obj/Src/m1_tranproc.o
                                                  ../obj/Src/showDebug/showDebug.o
                                                  ../obj/Src/Rs232lib.o
                                                  ../obj/Src/otherfunc.o
                                                  ../obj/Src/Commlib.o
                                                  ../obj/Src/wireless.o
portOpen                                          ../SDK/lib/libseos.a(dll.o)
                                                  ../SDK/lib/libcrypto.a(console.o)
                                                  ../obj/Src/m1_tranproc.o
                                                  ../obj/Src/showDebug/showDebug.o
                                                  ../obj/Src/Rs232lib.o
                                                  ../obj/Src/otherfunc.o
                                                  ../obj/Src/Commlib.o
                                                  ../obj/Src/wireless.o
portPrintf                                        ../SDK/lib/libseos.a(dll.o)
portRecv                                          ../SDK/lib/libseos.a(dll.o)
                                                  ../SDK/lib/libcrypto.a(console.o)
                                                  ../obj/Src/showDebug/showDebug.o
                                                  ../obj/Src/Rs232lib.o
                                                  ../obj/Src/otherfunc.o
                                                  ../obj/Src/Commlib.o
portReset                                         ../SDK/lib/libseos.a(dll.o)
                                                  ../obj/Src/showDebug/showDebug.o
                                                  ../obj/Src/Rs232lib.o
portSends                                         ../SDK/lib/libseos.a(dll.o)
                                                  ../SDK/lib/libcrypto.a(console.o)
                                                  ../obj/Src/showDebug/showDebug.o
                                                  ../obj/Src/Rs232lib.o
                                                  ../obj/Src/otherfunc.o
                                                  ../obj/Src/Commlib.o
                                                  ../obj/Src/wireless.o
printf                                            /cygdrive/c/ArmToolchain/arm-linux-uclibc/bin/../../lib/libc.a(printf.os)
                                                  ../SDK/lib/libseos.a(dll.o)
                                                  ../obj/Src/tranproc.o
prnBlackMarkStep                                  ../SDK/lib/libseos.a(dll.o)
prnEnBlackMark                                    ../SDK/lib/libseos.a(dll.o)
prnGetCurFont                                     ../SDK/lib/libseos.a(dll.o)
                                                  ../obj/Src/tranprint.o
prnGetCurLine                                     ../SDK/lib/libseos.a(dll.o)
prnInit                                           ../SDK/lib/libseos.a(dll.o)
                                                  ../obj/Src/m1_tranproc.o
                                                  ../obj/Src/tranprint.o
                                                  ../obj/Src/posfiles.o
                                                  ../obj/Src/appsetup.o
prnLeftIndent                                     ../SDK/lib/libseos.a(dll.o)
prnLogo                                           ../SDK/lib/libseos.a(dll.o)
prnPrintf                                         ../SDK/lib/libseos.a(dll.o)
                                                  ../obj/Src/m1_tranproc.o
                                                  ../obj/Src/tranprint.o
                                                  ../obj/Src/posfiles.o
                                                  ../obj/Src/appsetup.o
prnSetFont                                        ../SDK/lib/libseos.a(dll.o)
                                                  ../obj/Src/tranprint.o
prnSetFontZoom                                    ../SDK/lib/libseos.a(dll.o)
prnSetGray                                        ../SDK/lib/libseos.a(dll.o)
prnSetSpace                                       ../SDK/lib/libseos.a(dll.o)
prnStart                                          ../SDK/lib/libseos.a(dll.o)
                                                  ../obj/Src/tranprint.o
prnStatus                                         ../SDK/lib/libseos.a(dll.o)
                                                  ../obj/Src/devicetest.o
prnStep                                           ../SDK/lib/libseos.a(dll.o)
                                                  ../obj/Src/tranprint.o
prnTemperature                                    ../SDK/lib/libseos.a(dll.o)
prnWprintf                                        ../SDK/lib/libseos.a(dll.o)
queryDetail                                       ../obj/Src/posfiles.o
                                                  ../obj/Src/main.o
queryTrans                                        ../obj/Src/posfiles.o
                                                  ../obj/Src/main.o
raise                                             /cygdrive/c/ArmToolchain/arm-linux-uclibc/bin/../../lib/libc.a(raise.os)
                                                  /cygdrive/c/ArmToolchain/bin/../lib/gcc/arm-linux-uclibc/4.1.2/libgcc.a(_dvmd_lnx.o)
read                                              /cygdrive/c/ArmToolchain/arm-linux-uclibc/bin/../../lib/libc.a(read.os)
read_data                                         ../obj/Src/posfiles.o
                                                  ../obj/Src/otherfunc.o
reprintTrans                                      ../obj/Src/posfiles.o
                                                  ../obj/Src/main.o
sAcqList                                          ../obj/Src/globalvar.o
                                                  ../obj/Src/tranprint.o
sRecvPacketBuff                                   ../obj/Src/globalvar.o
                                                  ../obj/Src/m1_tranproc.o
                                                  ../obj/Src/trancomm.o
sRetErrInfo                                       ../obj/Src/globalvar.o
                                                  ../obj/Src/otherfunc.o
sSendPacketBuff                                   ../obj/Src/globalvar.o
                                                  ../obj/Src/m1_tranproc.o
                                                  ../obj/Src/trancomm.o
sha1_block_data_order                             ../SDK/lib/libcrypto.a(sha1dgst.o)
sha1_block_host_order                             ../SDK/lib/libcrypto.a(sha1dgst.o)
sha_final                                         ../SDK/lib/libseos.a(dll.o)
sha_init                                          ../SDK/lib/libseos.a(dll.o)
sha_update                                        ../SDK/lib/libseos.a(dll.o)
showDebugMessage                                  ../obj/Src/showDebug/showDebug.o
                                                  ../obj/Src/m1_card/m1_card_proc.o
sleCardChangeSC                                   ../SDK/lib/libseos.a(dll.o)
sleCardCheckData                                  ../SDK/lib/libseos.a(dll.o)
sleCardLock                                       ../SDK/lib/libseos.a(dll.o)
sleCardPowerDown                                  ../SDK/lib/libseos.a(dll.o)
sleCardPowerUp                                    ../SDK/lib/libseos.a(dll.o)
sleCardRead                                       ../SDK/lib/libseos.a(dll.o)
sleCardReadSCErr                                  ../SDK/lib/libseos.a(dll.o)
sleCardReadStatus                                 ../SDK/lib/libseos.a(dll.o)
sleCardVerify                                     ../SDK/lib/libseos.a(dll.o)
sleCardWrite                                      ../SDK/lib/libseos.a(dll.o)
snprintf                                          /cygdrive/c/ArmToolchain/arm-linux-uclibc/bin/../../lib/libc.a(snprintf.os)
                                                  ../SDK/lib/libftp.a(ftp.o)
                                                  ../obj/Src/tranprint.o
sprintf                                           /cygdrive/c/ArmToolchain/arm-linux-uclibc/bin/../../lib/libc.a(sprintf.os)
                                                  ../SDK/lib/libemv.a(emvpubfunc.o)
                                                  ../obj/Src/qpbocProc.o
                                                  ../obj/Src/otherTxn.o
                                                  ../obj/Src/Menu.o
                                                  ../obj/Src/emvtranproc.o
                                                  ../obj/Src/m1_tranproc.o
                                                  ../obj/Src/showDebug/showDebug.o
                                                  ../obj/Src/tranproc.o
                                                  ../obj/Src/tranprint.o
                                                  ../obj/Src/trancomm.o
                                                  ../obj/Src/pospin.o
                                                  ../obj/Src/PosLib.o
                                                  ../obj/Src/posfiles.o
                                                  ../obj/Src/otherfunc.o
                                                  ../obj/Src/opermanage.o
                                                  ../obj/Src/NewPosApi.o
                                                  ../obj/Src/MathLib.o
                                                  ../obj/Src/main.o
                                                  ../obj/Src/getcard.o
                                                  ../obj/Src/Commlib.o
                                                  ../obj/Src/appsetup.o
                                                  ../obj/Src/wireless.o
stLimitTotal                                      ../obj/Src/globalvar.o
                                                  ../obj/Src/tranproc.o
                                                  ../obj/Src/posfiles.o
                                                  ../obj/Src/main.o
stM1EnrichTotal                                   ../obj/Src/globalvar.o
                                                  ../obj/Src/m1_tranproc.o
                                                  ../obj/Src/tranprint.o
                                                  ../obj/Src/posfiles.o
                                                  ../obj/Src/main.o
stPosParam                                        ../obj/Src/globalvar.o
                                                  ../obj/Src/qpbocProc.o
                                                  ../obj/Src/otherTxn.o
                                                  ../obj/Src/Menu.o
                                                  ../obj/Src/emvtranproc.o
                                                  ../obj/Src/m1_tranproc.o
                                                  ../obj/Src/tranproc.o
                                                  ../obj/Src/tranprint.o
                                                  ../obj/Src/trancomm.o
                                                  ../obj/Src/pospin.o
                                                  ../obj/Src/posfiles.o
                                                  ../obj/Src/otherfunc.o
                                                  ../obj/Src/opermanage.o
                                                  ../obj/Src/NewPosApi.o
                                                  ../obj/Src/main.o
                                                  ../obj/Src/getcard.o
                                                  ../obj/Src/Commlib.o
                                                  ../obj/Src/appsetup.o
                                                  ../obj/Src/wireless.o
stTemp                                            ../obj/Src/globalvar.o
                                                  ../obj/Src/qpbocProc.o
                                                  ../obj/Src/otherTxn.o
                                                  ../obj/Src/Menu.o
                                                  ../obj/Src/emvtranproc.o
                                                  ../obj/Src/m1_tranproc.o
                                                  ../obj/Src/tranproc.o
                                                  ../obj/Src/tranprint.o
                                                  ../obj/Src/trancomm.o
                                                  ../obj/Src/pospin.o
                                                  ../obj/Src/posfiles.o
                                                  ../obj/Src/otherfunc.o
                                                  ../obj/Src/main.o
                                                  ../obj/Src/getcard.o
                                                  ../obj/Src/ChkOption.o
stTotal                                           ../obj/Src/globalvar.o
                                                  ../obj/Src/tranproc.o
                                                  ../obj/Src/tranprint.o
                                                  ../obj/Src/posfiles.o
                                                  ../obj/Src/main.o
stTransCtrl                                       ../obj/Src/globalvar.o
                                                  ../obj/Src/emvtranproc.o
                                                  ../obj/Src/m1_tranproc.o
                                                  ../obj/Src/tranproc.o
                                                  ../obj/Src/tranprint.o
                                                  ../obj/Src/trancomm.o
                                                  ../obj/Src/posfiles.o
                                                  ../obj/Src/otherfunc.o
                                                  ../obj/Src/opermanage.o
                                                  ../obj/Src/main.o
                                                  ../obj/Src/getcard.o
                                                  ../obj/Src/appsetup.o
                                                  ../obj/Src/wireless.o
stderr                                            /cygdrive/c/ArmToolchain/arm-linux-uclibc/bin/../../lib/libc.a(_stdio.os)
                                                  ../SDK/lib/libcrypto.a(fopen.o)
                                                  ../SDK/lib/libcrypto.a(perror.o)
stdin                                             /cygdrive/c/ArmToolchain/arm-linux-uclibc/bin/../../lib/libc.a(_stdio.os)
                                                  ../SDK/lib/libcrypto.a(fopen.o)
stdio_devices                                     ../SDK/lib/libcrypto.a(console.o)
stdout                                            /cygdrive/c/ArmToolchain/arm-linux-uclibc/bin/../../lib/libc.a(_stdio.os)
                                                  /cygdrive/c/ArmToolchain/arm-linux-uclibc/bin/../../lib/libc.a(printf.os)
                                                  ../SDK/lib/libcrypto.a(fopen.o)
strcat                                            /cygdrive/c/ArmToolchain/arm-linux-uclibc/bin/../../lib/libc.a(strcat.os)
                                                  ../obj/Src/showDebug/showDebug.o
                                                  ../obj/Src/PosLib.o
strchr                                            /cygdrive/c/ArmToolchain/arm-linux-uclibc/bin/../../lib/libc.a(strchr.os)
                                                  ../SDK/lib/libemv.a(qpbocapi.o)
                                                  ../obj/Src/PosLib.o
                                                  ../obj/Src/getcard.o
strcmp                                            /cygdrive/c/ArmToolchain/arm-linux-uclibc/bin/../../lib/libc.a(strcmp.os)
                                                  ../SDK/lib/libcrypto.a(open.o)
                                                  ../obj/Src/tranproc.o
                                                  ../obj/Src/posparams.o
                                                  ../obj/Src/otherfunc.o
                                                  ../obj/Src/opermanage.o
                                                  ../obj/Src/main.o
                                                  ../obj/Src/Commlib.o
                                                  ../obj/Src/appsetup.o
                                                  ../obj/Src/wireless.o
strcoll                                           /cygdrive/c/ArmToolchain/arm-linux-uclibc/bin/../../lib/libc.a(strcmp.os)
strcpy                                            /cygdrive/c/ArmToolchain/arm-linux-uclibc/bin/../../lib/libc.a(strcpy.os)
                                                  ../SDK/lib/libemv.a(qpbocapi.o)
                                                  ../obj/Src/otherTxn.o
                                                  ../obj/Src/Menu.o
                                                  ../obj/Src/emvtranproc.o
                                                  ../obj/Src/LocalFtp.o
                                                  ../obj/Src/m1_tranproc.o
                                                  ../obj/Src/showDebug/showDebug.o
                                                  ../obj/Src/tranproc.o
                                                  ../obj/Src/tranprint.o
                                                  ../obj/Src/trancomm.o
                                                  ../obj/Src/pospin.o
                                                  ../obj/Src/posparams.o
                                                  ../obj/Src/PosLib.o
                                                  ../obj/Src/posfiles.o
                                                  ../obj/Src/otherfunc.o
                                                  ../obj/Src/opermanage.o
                                                  ../obj/Src/NewPosApi.o
                                                  ../obj/Src/MathLib.o
                                                  ../obj/Src/main.o
                                                  ../obj/Src/getcard.o
                                                  ../obj/Src/Commlib.o
                                                  ../obj/Src/appsetup.o
                                                  ../obj/Src/wireless.o
strlen                                            /cygdrive/c/ArmToolchain/arm-linux-uclibc/bin/../../lib/libc.a(strlen.os)
                                                  ../SDK/lib/libemv.a(qpbocapi.o)
                                                  ../SDK/lib/libemv.a(emvpubfunc.o)
                                                  ../obj/Src/pack8583.o
                                                  ../obj/Src/otherTxn.o
                                                  ../obj/Src/Menu.o
                                                  ../obj/Src/emvtranproc.o
                                                  ../obj/Src/LocalFtp.o
                                                  ../obj/Src/m1_tranproc.o
                                                  ../obj/Src/showDebug/showDebug.o
                                                  ../obj/Src/tranproc.o
                                                  ../obj/Src/tranprint.o
                                                  ../obj/Src/trancomm.o
                                                  ../obj/Src/pospin.o
                                                  ../obj/Src/posparams.o
                                                  ../obj/Src/PosLib.o
                                                  ../obj/Src/posfiles.o
                                                  ../obj/Src/otherfunc.o
                                                  ../obj/Src/NewPosApi.o
                                                  ../obj/Src/MathLib.o
                                                  ../obj/Src/getcard.o
                                                  ../obj/Src/Commlib.o
                                                  ../obj/Src/ChkOption.o
                                                  ../obj/Src/appsetup.o
strncpy                                           /cygdrive/c/ArmToolchain/arm-linux-uclibc/bin/../../lib/libc.a(strncpy.os)
                                                  ../SDK/lib/libftp.a(ftp.o)
                                                  ../SDK/lib/libcrypto.a(fopen.o)
                                                  ../SDK/lib/libemv.a(qpbocapi.o)
                                                  ../obj/Src/wireless.o
strnlen                                           /cygdrive/c/ArmToolchain/arm-linux-uclibc/bin/../../lib/libc.a(strnlen.os)
strrchr                                           /cygdrive/c/ArmToolchain/arm-linux-uclibc/bin/../../lib/libc.a(strrchr.os)
                                                  ../SDK/lib/libftp.a(ftp.o)
strstr                                            /cygdrive/c/ArmToolchain/arm-linux-uclibc/bin/../../lib/libc.a(strstr.os)
                                                  ../obj/Src/posparams.o
                                                  ../obj/Src/getcard.o
strtol                                            /cygdrive/c/ArmToolchain/arm-linux-uclibc/bin/../../lib/libc.a(strtol.os)
                                                  ../SDK/lib/libftp.a(ftp.o)
sysAutoPowerSave                                  ../SDK/lib/libseos.a(dll.o)
sysBeef                                           ../SDK/lib/libseos.a(dll.o)
                                                  ../obj/Src/tranproc.o
                                                  ../obj/Src/tranprint.o
                                                  ../obj/Src/trancomm.o
                                                  ../obj/Src/PosLib.o
                                                  ../obj/Src/otherfunc.o
                                                  ../obj/Src/NewPosApi.o
                                                  ../obj/Src/main.o
                                                  ../obj/Src/Commlib.o
                                                  ../obj/Src/appsetup.o
sysBeep                                           ../SDK/lib/libseos.a(dll.o)
                                                  ../obj/Src/m1_tranproc.o
                                                  ../obj/Src/NewPosApi.o
sysCheckFirstRun                                  ../SDK/lib/libseos.a(dll.o)
                                                  ../obj/Src/main.o
sysClipboardRead                                  ../SDK/lib/libseos.a(dll.o)
sysClipboardWrite                                 ../SDK/lib/libseos.a(dll.o)
sysDelayMs                                        ../SDK/lib/libseos.a(dll.o)
                                                  ../obj/Src/emvtranproc.o
                                                  ../obj/Src/m1_tranproc.o
                                                  ../obj/Src/m1_card/m1_card_proc.o
                                                  ../obj/Src/tranproc.o
                                                  ../obj/Src/Rs232lib.o
                                                  ../obj/Src/PosLib.o
                                                  ../obj/Src/otherfunc.o
                                                  ../obj/Src/NewPosApi.o
                                                  ../obj/Src/getcard.o
                                                  ../obj/Src/devicetest.o
                                                  ../obj/Src/Commlib.o
sysEncode2bmp                                     ../SDK/lib/libseos.a(dll.o)
sysExit                                           ../SDK/lib/libseos.a(dll.o)
sysGetCPU_UniqueSN                                ../SDK/lib/libseos.a(dll.o)
sysGetLastError                                   ../SDK/lib/libseos.a(dll.o)
                                                  ../obj/Src/PosLib.o
sysGetPowerKeyStatus                              ../SDK/lib/libseos.a(dll.o)
sysGetPowerStatus                                 ../SDK/lib/libseos.a(dll.o)
                                                  ../obj/Src/PosLib.o
sysGetTime                                        ../SDK/lib/libseos.a(dll.o)
                                                  ../SDK/lib/libemv.a(qpbocapi.o)
                                                  ../SDK/lib/libemv.a(emvcapk.o)
                                                  ../SDK/lib/libemv.a(emvappselect.o)
                                                  ../obj/Src/NewTime.o
                                                  ../obj/Src/m1_tranproc.o
                                                  ../obj/Src/showDebug/showDebug.o
                                                  ../obj/Src/tranprint.o
                                                  ../obj/Src/otherfunc.o
                                                  ../obj/Src/main.o
sysGetTimerCount                                  ../SDK/lib/libseos.a(dll.o)
                                                  ../obj/Src/qpbocProc.o
                                                  ../obj/Src/m1_tranproc.o
                                                  ../obj/Src/Rs232lib.o
                                                  ../obj/Src/PosLib.o
                                                  ../obj/Src/otherfunc.o
                                                  ../obj/Src/NewPosApi.o
                                                  ../obj/Src/getcard.o
                                                  ../obj/Src/Commlib.o
                                                  ../obj/Src/appsetup.o
sysGetVolt                                        ../SDK/lib/libseos.a(dll.o)
sysPowerOff                                       ../SDK/lib/libseos.a(dll.o)
                                                  ../obj/Src/main.o
sysPowerSave                                      ../SDK/lib/libseos.a(dll.o)
sysReadConfig                                     ../SDK/lib/libseos.a(dll.o)
                                                  ../obj/Src/main.o
sysReadSN                                         ../SDK/lib/libseos.a(dll.o)
                                                  ../SDK/lib/libemv.a(qpbocapi.o)
                                                  ../SDK/lib/libemv.a(emvappselect.o)
                                                  ../obj/Src/m1_tranproc.o
                                                  ../obj/Src/tranproc.o
                                                  ../obj/Src/main.o
sysReadVer                                        ../SDK/lib/libseos.a(dll.o)
sysReset                                          ../SDK/lib/libseos.a(dll.o)
                                                  ../obj/Src/LocalFtp.o
                                                  ../obj/Src/showDebug/showDebug.o
sysSetPowerKey                                    ../SDK/lib/libseos.a(dll.o)
sysSetPowerOffLogo                                ../SDK/lib/libseos.a(dll.o)
sysSetTime                                        ../SDK/lib/libseos.a(dll.o)
                                                  ../obj/Src/tranproc.o
sysTimerCheck                                     ../SDK/lib/libseos.a(dll.o)
                                                  ../obj/Src/otherfunc.o
sysTimerSet                                       ../SDK/lib/libseos.a(dll.o)
                                                  ../obj/Src/otherfunc.o
tConfig                                           ../obj/Src/globalvar.o
                                                  ../obj/Src/emvtranproc.o
                                                  ../obj/Src/tranprint.o
                                                  ../obj/Src/otherfunc.o
                                                  ../obj/Src/main.o
tEMVCallBackFunc                                  ../obj/Src/globalvar.o
                                                  ../obj/Src/main.o
tEMVCoreInit                                      ../obj/Src/globalvar.o
                                                  ../obj/Src/tranprint.o
                                                  ../obj/Src/otherfunc.o
                                                  ../obj/Src/main.o
tcgetattr                                         /cygdrive/c/ArmToolchain/arm-linux-uclibc/bin/../../lib/libc.a(tcgetattr.os)
time_diff                                         ../obj/Src/otherfunc.o
tolower                                           /cygdrive/c/ArmToolchain/arm-linux-uclibc/bin/../../lib/libc.a(tolower.os)
                                                  ../obj/Src/MathLib.o
toupper                                           /cygdrive/c/ArmToolchain/arm-linux-uclibc/bin/../../lib/libc.a(toupper.os)
                                                  ../obj/Src/MathLib.o
uiNacRecv                                         ../obj/Src/otherfunc.o
uiPortRecvBuf                                     ../obj/Src/otherfunc.o
update_limit_total                                ../obj/Src/posfiles.o
                                                  ../obj/Src/tranproc.o
usRecvPacketLen                                   ../obj/Src/globalvar.o
                                                  ../obj/Src/m1_tranproc.o
                                                  ../obj/Src/trancomm.o
usSendPacketLen                                   ../obj/Src/globalvar.o
                                                  ../obj/Src/m1_tranproc.o
                                                  ../obj/Src/trancomm.o
vBcd2Long                                         ../obj/Src/otherfunc.o
vLong2Bcd                                         ../obj/Src/otherfunc.o
vNacSend                                          ../obj/Src/otherfunc.o
vOne2Two                                          ../obj/Src/otherfunc.o
vOne2Two0                                         ../obj/Src/otherfunc.o
vTwo2One                                          ../obj/Src/otherfunc.o
vfprintf                                          /cygdrive/c/ArmToolchain/arm-linux-uclibc/bin/../../lib/libc.a(vfprintf.os)
vfwprintf                                         /cygdrive/c/ArmToolchain/arm-linux-uclibc/bin/../../lib/libc.a(vfwprintf.os)
vsnprintf                                         /cygdrive/c/ArmToolchain/arm-linux-uclibc/bin/../../lib/libc.a(vsnprintf.os)
                                                  ../SDK/lib/libftp.a(ftp.o)
                                                  ../SDK/lib/libcrypto.a(console.o)
                                                  ../SDK/lib/libcrypto.a(fprintf.o)
                                                  ../SDK/lib/libseos.a(dll.o)
vsprintf                                          /cygdrive/c/ArmToolchain/arm-linux-uclibc/bin/../../lib/libc.a(vsprintf.os)
                                                  ../obj/Src/showDebug/showDebug.o
vswprintf                                         /cygdrive/c/ArmToolchain/arm-linux-uclibc/bin/../../lib/libc.a(vswprintf.os)
                                                  ../SDK/lib/libseos.a(dll.o)
wcrtomb                                           /cygdrive/c/ArmToolchain/arm-linux-uclibc/bin/../../lib/libc.a(wcrtomb.os)
wcslen                                            /cygdrive/c/ArmToolchain/arm-linux-uclibc/bin/../../lib/libc.a(wcslen.os)
wcsnlen                                           /cygdrive/c/ArmToolchain/arm-linux-uclibc/bin/../../lib/libc.a(wcsnlen.os)
wcsnrtombs                                        /cygdrive/c/ArmToolchain/arm-linux-uclibc/bin/../../lib/libc.a(wcsnrtombs.os)
wcsrtombs                                         /cygdrive/c/ArmToolchain/arm-linux-uclibc/bin/../../lib/libc.a(wcsrtombs.os)
wmemcpy                                           /cygdrive/c/ArmToolchain/arm-linux-uclibc/bin/../../lib/libc.a(wmemcpy.os)
write                                             /cygdrive/c/ArmToolchain/arm-linux-uclibc/bin/../../lib/libc.a(write.os)
write_data                                        ../obj/Src/posfiles.o
                                                  ../obj/Src/tranproc.o
                                                  ../obj/Src/otherfunc.o
                                                  ../obj/Src/main.o
                                                  ../obj/Src/Commlib.o
write_stat_time                                   ../obj/Src/otherfunc.o
                                                  ../obj/Src/tranproc.o
                                                  ../obj/Src/main.o
